
Placa.elf:     file format elf32-littlearm

Sections:
Idx Name          Size      VMA       LMA       File off  Algn
  0 .text         00003134  0c000000  0c000000  00008000  2**2
                  CONTENTS, ALLOC, LOAD, READONLY, CODE
  1 .data         00000014  0c003134  0c003134  0000b134  2**2
                  CONTENTS, ALLOC, LOAD, DATA
  2 .rodata       000000a0  0c003148  0c003148  0000b148  2**3
                  CONTENTS, ALLOC, LOAD, READONLY, DATA
  3 .bss          00000068  0c0031e8  0c0031e8  0000b1e8  2**3
                  ALLOC
  4 .ARM.attributes 0000002e  00000000  00000000  0000b1e8  2**0
                  CONTENTS, READONLY
  5 .comment      0000002a  00000000  00000000  0000b216  2**0
                  CONTENTS, READONLY
  6 .debug_info   00001910  00000000  00000000  0000b240  2**0
                  CONTENTS, READONLY, DEBUGGING
  7 .debug_line   00001072  00000000  00000000  0000cb50  2**0
                  CONTENTS, READONLY, DEBUGGING
  8 .debug_abbrev 0000093f  00000000  00000000  0000dbc2  2**0
                  CONTENTS, READONLY, DEBUGGING
  9 .debug_frame  000004f4  00000000  00000000  0000e504  2**2
                  CONTENTS, READONLY, DEBUGGING
 10 .debug_aranges 00000160  00000000  00000000  0000e9f8  2**3
                  CONTENTS, READONLY, DEBUGGING
 11 .debug_macinfo 000289f6  00000000  00000000  0000eb58  2**0
                  CONTENTS, READONLY, DEBUGGING
 12 .debug_loc    00001d41  00000000  00000000  0003754e  2**0
                  CONTENTS, READONLY, DEBUGGING
 13 .debug_pubnames 000003a4  00000000  00000000  0003928f  2**0
                  CONTENTS, READONLY, DEBUGGING
 14 .debug_pubtypes 00000012  00000000  00000000  00039633  2**0
                  CONTENTS, READONLY, DEBUGGING
 15 .debug_ranges 000004a8  00000000  00000000  00039645  2**0
                  CONTENTS, READONLY, DEBUGGING
 16 .debug_str    000004fc  00000000  00000000  00039aed  2**0
                  CONTENTS, READONLY, DEBUGGING

Disassembly of section .text:

0c000000 <ENTRY>:
    .extern Main			/* The main entry of mon program */
    
    .text

    ENTRY:
    b ResetHandler			/* for debug            */
 c000000:	ea00010a 	b	c000430 <ResetHandler>
    b HandlerUndef      	/* handlerUndef         */
 c000004:	ea000042 	b	c000114 <HandlerUndef>
    b HandlerSWI        	/* SWI interrupt handler*/
 c000008:	ea000047 	b	c00012c <HandlerSWI>
    b HandlerPabort     	/* handlerPAbort        */
 c00000c:	ea000052 	b	c00015c <HandlerPabort>
    b HandlerDabort     	/* handlerDAbort        */
 c000010:	ea00004b 	b	c000144 <HandlerDabort>
    b .                 	/* handlerReserved      */
 c000014:	eafffffe 	b	c000014 <ENTRY+0x14>
    b HandlerIRQ
 c000018:	ea000037 	b	c0000fc <HandlerIRQ>
    b HandlerFIQ
 c00001c:	ea000030 	b	c0000e4 <HandlerFIQ>

0c000020 <VECTOR_BRANCH>:
	#be changed like below, to work-around with H/W bug of S3C44B0X interrupt controller. 
	# b HandlerIRQ  ->  subs pc,lr,#4
	# b HandlerIRQ  ->  subs pc,lr,#4

VECTOR_BRANCH:
    ldr pc,=HandlerEINT0    /*mGA    H/W interrupt vector table  */
 c000020:	e59ff56c 	ldr	pc, [pc, #1388]	; c000594 <U0+0x14>
    ldr pc,=HandlerEINT1    /*	                                 */	
 c000024:	e59ff56c 	ldr	pc, [pc, #1388]	; c000598 <U0+0x18>
    ldr pc,=HandlerEINT2    /*                                   */  
 c000028:	e59ff56c 	ldr	pc, [pc, #1388]	; c00059c <U0+0x1c>
    ldr pc,=HandlerEINT3    /*                                   */  
 c00002c:	e59ff56c 	ldr	pc, [pc, #1388]	; c0005a0 <U0+0x20>
    ldr pc,=HandlerEINT4567 /*                                   */  
 c000030:	e59ff56c 	ldr	pc, [pc, #1388]	; c0005a4 <U0+0x24>
    ldr pc,=HandlerTICK	    /*mGA                                */   
 c000034:	e59ff56c 	ldr	pc, [pc, #1388]	; c0005a8 <U0+0x28>
    b .                                                          
 c000038:	eafffffe 	b	c000038 <VECTOR_BRANCH+0x18>
    b .                                                         
 c00003c:	eafffffe 	b	c00003c <VECTOR_BRANCH+0x1c>
    ldr pc,=HandlerZDMA0    /*mGB                                */  
 c000040:	e59ff564 	ldr	pc, [pc, #1380]	; c0005ac <U0+0x2c>
    ldr pc,=HandlerZDMA1    /*                                   */  
 c000044:	e59ff564 	ldr	pc, [pc, #1380]	; c0005b0 <U0+0x30>
    ldr pc,=HandlerBDMA0    /*                                   */  
 c000048:	e59ff564 	ldr	pc, [pc, #1380]	; c0005b4 <U0+0x34>
    ldr pc,=HandlerBDMA1    /*                                   */  
 c00004c:	e59ff564 	ldr	pc, [pc, #1380]	; c0005b8 <U0+0x38>
    ldr pc,=HandlerWDT	    /*                                   */   
 c000050:	e59ff564 	ldr	pc, [pc, #1380]	; c0005bc <U0+0x3c>
    ldr pc,=HandlerUERR01   /*mGB                                */  
 c000054:	e59ff564 	ldr	pc, [pc, #1380]	; c0005c0 <U0+0x40>
    b .                                                          
 c000058:	eafffffe 	b	c000058 <VECTOR_BRANCH+0x38>
    b .                                                          
 c00005c:	eafffffe 	b	c00005c <VECTOR_BRANCH+0x3c>
    ldr pc,=HandlerTIMER0   /*mGC                                */  
 c000060:	e59ff55c 	ldr	pc, [pc, #1372]	; c0005c4 <U0+0x44>
    ldr pc,=HandlerTIMER1   /*                                   */  
 c000064:	e59ff55c 	ldr	pc, [pc, #1372]	; c0005c8 <U0+0x48>
    ldr pc,=HandlerTIMER2   /*                                   */  
 c000068:	e59ff55c 	ldr	pc, [pc, #1372]	; c0005cc <U0+0x4c>
    ldr pc,=HandlerTIMER3   /*                                   */  
 c00006c:	e59ff55c 	ldr	pc, [pc, #1372]	; c0005d0 <U0+0x50>
    ldr pc,=HandlerTIMER4   /*                                   */  
 c000070:	e59ff55c 	ldr	pc, [pc, #1372]	; c0005d4 <U0+0x54>
    ldr pc,=HandlerTIMER5   /*mGC                                */  
 c000074:	e59ff55c 	ldr	pc, [pc, #1372]	; c0005d8 <U0+0x58>
    b .                                                          
 c000078:	eafffffe 	b	c000078 <VECTOR_BRANCH+0x58>
    b .                                                          
 c00007c:	eafffffe 	b	c00007c <VECTOR_BRANCH+0x5c>
    ldr pc,=HandlerURXD0    /*mGD                                */  
 c000080:	e59ff554 	ldr	pc, [pc, #1364]	; c0005dc <U0+0x5c>
    ldr pc,=HandlerURXD1    /*                                   */  
 c000084:	e59ff554 	ldr	pc, [pc, #1364]	; c0005e0 <U0+0x60>
    ldr pc,=HandlerIIC	    /*                                   */   
 c000088:	e59ff554 	ldr	pc, [pc, #1364]	; c0005e4 <U0+0x64>
    ldr pc,=HandlerSIO	    /*                                   */   
 c00008c:	e59ff554 	ldr	pc, [pc, #1364]	; c0005e8 <U0+0x68>
    ldr pc,=HandlerUTXD0    /*                                   */  
 c000090:	e59ff554 	ldr	pc, [pc, #1364]	; c0005ec <U0+0x6c>
    ldr pc,=HandlerUTXD1    /*mGD                                */  
 c000094:	e59ff554 	ldr	pc, [pc, #1364]	; c0005f0 <U0+0x70>
    b .                                                          
 c000098:	eafffffe 	b	c000098 <VECTOR_BRANCH+0x78>
    b .                                                          
 c00009c:	eafffffe 	b	c00009c <VECTOR_BRANCH+0x7c>
    ldr pc,=HandlerRTC	    /*mGKA                               */   
 c0000a0:	e59ff54c 	ldr	pc, [pc, #1356]	; c0005f4 <U0+0x74>
    b .					    /*                     		         */
 c0000a4:	eafffffe 	b	c0000a4 <VECTOR_BRANCH+0x84>
    b .					    /*                     		         */
 c0000a8:	eafffffe 	b	c0000a8 <VECTOR_BRANCH+0x88>
    b .					    /*                     		         */
 c0000ac:	eafffffe 	b	c0000ac <VECTOR_BRANCH+0x8c>
    b .					    /*                     		         */
 c0000b0:	eafffffe 	b	c0000b0 <VECTOR_BRANCH+0x90>
    b .					    /*mGKA                 			     */
 c0000b4:	eafffffe 	b	c0000b4 <VECTOR_BRANCH+0x94>
    b .                                                          
 c0000b8:	eafffffe 	b	c0000b8 <VECTOR_BRANCH+0x98>
    b .                                                          
 c0000bc:	eafffffe 	b	c0000bc <VECTOR_BRANCH+0x9c>
    ldr pc,=HandlerADC	    /*mGKB                               */  
 c0000c0:	e59ff530 	ldr	pc, [pc, #1328]	; c0005f8 <U0+0x78>
    b .					    /*                     		         */
 c0000c4:	eafffffe 	b	c0000c4 <VECTOR_BRANCH+0xa4>
    b .					    /*                     		         */
 c0000c8:	eafffffe 	b	c0000c8 <VECTOR_BRANCH+0xa8>
    b .					    /*                     		         */
 c0000cc:	eafffffe 	b	c0000cc <VECTOR_BRANCH+0xac>
    b .					    /*                     		         */
 c0000d0:	eafffffe 	b	c0000d0 <VECTOR_BRANCH+0xb0>
    b .					    /*mGKB                 		         */
 c0000d4:	eafffffe 	b	c0000d4 <VECTOR_BRANCH+0xb4>
    b .                                                          
 c0000d8:	eafffffe 	b	c0000d8 <VECTOR_BRANCH+0xb8>
    b .                                                          
 c0000dc:	eafffffe 	b	c0000dc <VECTOR_BRANCH+0xbc>
@0xe0=EnterPWDN                                                 
    ldr pc,=EnterPWDN
 c0000e0:	e59ff514 	ldr	pc, [pc, #1300]	; c0005fc <U0+0x7c>

0c0000e4 <HandlerFIQ>:
               to be dumped into the current section\ 
               (which is assumed to be the .text section)\ 
               at the current location (aligned to a word boundary).*/
   .align

HandlerFIQ:		HANDLER HandleFIQ
 c0000e4:	e24dd004 	sub	sp, sp, #4
 c0000e8:	e52d0004 	push	{r0}		; (str r0, [sp, #-4]!)
 c0000ec:	e59f050c 	ldr	r0, [pc, #1292]	; c000600 <U0+0x80>
 c0000f0:	e5900000 	ldr	r0, [r0]
 c0000f4:	e58d0004 	str	r0, [sp, #4]
 c0000f8:	e8bd8001 	pop	{r0, pc}

0c0000fc <HandlerIRQ>:
HandlerIRQ:		HANDLER HandleIRQ
 c0000fc:	e24dd004 	sub	sp, sp, #4
 c000100:	e52d0004 	push	{r0}		; (str r0, [sp, #-4]!)
 c000104:	e59f04f8 	ldr	r0, [pc, #1272]	; c000604 <U0+0x84>
 c000108:	e5900000 	ldr	r0, [r0]
 c00010c:	e58d0004 	str	r0, [sp, #4]
 c000110:	e8bd8001 	pop	{r0, pc}

0c000114 <HandlerUndef>:
HandlerUndef:	HANDLER HandleUndef
 c000114:	e24dd004 	sub	sp, sp, #4
 c000118:	e52d0004 	push	{r0}		; (str r0, [sp, #-4]!)
 c00011c:	e59f04e4 	ldr	r0, [pc, #1252]	; c000608 <U0+0x88>
 c000120:	e5900000 	ldr	r0, [r0]
 c000124:	e58d0004 	str	r0, [sp, #4]
 c000128:	e8bd8001 	pop	{r0, pc}

0c00012c <HandlerSWI>:
HandlerSWI:		HANDLER HandleSWI
 c00012c:	e24dd004 	sub	sp, sp, #4
 c000130:	e52d0004 	push	{r0}		; (str r0, [sp, #-4]!)
 c000134:	e59f04d0 	ldr	r0, [pc, #1232]	; c00060c <U0+0x8c>
 c000138:	e5900000 	ldr	r0, [r0]
 c00013c:	e58d0004 	str	r0, [sp, #4]
 c000140:	e8bd8001 	pop	{r0, pc}

0c000144 <HandlerDabort>:
HandlerDabort:	HANDLER HandleDabort
 c000144:	e24dd004 	sub	sp, sp, #4
 c000148:	e52d0004 	push	{r0}		; (str r0, [sp, #-4]!)
 c00014c:	e59f04bc 	ldr	r0, [pc, #1212]	; c000610 <U0+0x90>
 c000150:	e5900000 	ldr	r0, [r0]
 c000154:	e58d0004 	str	r0, [sp, #4]
 c000158:	e8bd8001 	pop	{r0, pc}

0c00015c <HandlerPabort>:
HandlerPabort:	HANDLER HandlePabort
 c00015c:	e24dd004 	sub	sp, sp, #4
 c000160:	e52d0004 	push	{r0}		; (str r0, [sp, #-4]!)
 c000164:	e59f04a8 	ldr	r0, [pc, #1192]	; c000614 <U0+0x94>
 c000168:	e5900000 	ldr	r0, [r0]
 c00016c:	e58d0004 	str	r0, [sp, #4]
 c000170:	e8bd8001 	pop	{r0, pc}

0c000174 <HandlerADC>:
HandlerADC:		HANDLER HandleADC
 c000174:	e24dd004 	sub	sp, sp, #4
 c000178:	e52d0004 	push	{r0}		; (str r0, [sp, #-4]!)
 c00017c:	e59f0494 	ldr	r0, [pc, #1172]	; c000618 <U0+0x98>
 c000180:	e5900000 	ldr	r0, [r0]
 c000184:	e58d0004 	str	r0, [sp, #4]
 c000188:	e8bd8001 	pop	{r0, pc}

0c00018c <HandlerRTC>:
HandlerRTC:		HANDLER HandleRTC
 c00018c:	e24dd004 	sub	sp, sp, #4
 c000190:	e52d0004 	push	{r0}		; (str r0, [sp, #-4]!)
 c000194:	e59f0480 	ldr	r0, [pc, #1152]	; c00061c <U0+0x9c>
 c000198:	e5900000 	ldr	r0, [r0]
 c00019c:	e58d0004 	str	r0, [sp, #4]
 c0001a0:	e8bd8001 	pop	{r0, pc}

0c0001a4 <HandlerUTXD1>:
HandlerUTXD1:	HANDLER HandleUTXD1
 c0001a4:	e24dd004 	sub	sp, sp, #4
 c0001a8:	e52d0004 	push	{r0}		; (str r0, [sp, #-4]!)
 c0001ac:	e59f046c 	ldr	r0, [pc, #1132]	; c000620 <U0+0xa0>
 c0001b0:	e5900000 	ldr	r0, [r0]
 c0001b4:	e58d0004 	str	r0, [sp, #4]
 c0001b8:	e8bd8001 	pop	{r0, pc}

0c0001bc <HandlerUTXD0>:
HandlerUTXD0:	HANDLER HandleUTXD0
 c0001bc:	e24dd004 	sub	sp, sp, #4
 c0001c0:	e52d0004 	push	{r0}		; (str r0, [sp, #-4]!)
 c0001c4:	e59f0458 	ldr	r0, [pc, #1112]	; c000624 <U0+0xa4>
 c0001c8:	e5900000 	ldr	r0, [r0]
 c0001cc:	e58d0004 	str	r0, [sp, #4]
 c0001d0:	e8bd8001 	pop	{r0, pc}

0c0001d4 <HandlerSIO>:
HandlerSIO:		HANDLER HandleSIO
 c0001d4:	e24dd004 	sub	sp, sp, #4
 c0001d8:	e52d0004 	push	{r0}		; (str r0, [sp, #-4]!)
 c0001dc:	e59f0444 	ldr	r0, [pc, #1092]	; c000628 <U0+0xa8>
 c0001e0:	e5900000 	ldr	r0, [r0]
 c0001e4:	e58d0004 	str	r0, [sp, #4]
 c0001e8:	e8bd8001 	pop	{r0, pc}

0c0001ec <HandlerIIC>:
HandlerIIC:		HANDLER HandleIIC
 c0001ec:	e24dd004 	sub	sp, sp, #4
 c0001f0:	e52d0004 	push	{r0}		; (str r0, [sp, #-4]!)
 c0001f4:	e59f0430 	ldr	r0, [pc, #1072]	; c00062c <U0+0xac>
 c0001f8:	e5900000 	ldr	r0, [r0]
 c0001fc:	e58d0004 	str	r0, [sp, #4]
 c000200:	e8bd8001 	pop	{r0, pc}

0c000204 <HandlerURXD1>:
HandlerURXD1:	HANDLER HandleURXD1
 c000204:	e24dd004 	sub	sp, sp, #4
 c000208:	e52d0004 	push	{r0}		; (str r0, [sp, #-4]!)
 c00020c:	e59f041c 	ldr	r0, [pc, #1052]	; c000630 <U0+0xb0>
 c000210:	e5900000 	ldr	r0, [r0]
 c000214:	e58d0004 	str	r0, [sp, #4]
 c000218:	e8bd8001 	pop	{r0, pc}

0c00021c <HandlerURXD0>:
HandlerURXD0:	HANDLER HandleURXD0
 c00021c:	e24dd004 	sub	sp, sp, #4
 c000220:	e52d0004 	push	{r0}		; (str r0, [sp, #-4]!)
 c000224:	e59f0408 	ldr	r0, [pc, #1032]	; c000634 <U0+0xb4>
 c000228:	e5900000 	ldr	r0, [r0]
 c00022c:	e58d0004 	str	r0, [sp, #4]
 c000230:	e8bd8001 	pop	{r0, pc}

0c000234 <HandlerTIMER5>:
HandlerTIMER5:	HANDLER HandleTIMER5
 c000234:	e24dd004 	sub	sp, sp, #4
 c000238:	e52d0004 	push	{r0}		; (str r0, [sp, #-4]!)
 c00023c:	e59f03f4 	ldr	r0, [pc, #1012]	; c000638 <U0+0xb8>
 c000240:	e5900000 	ldr	r0, [r0]
 c000244:	e58d0004 	str	r0, [sp, #4]
 c000248:	e8bd8001 	pop	{r0, pc}

0c00024c <HandlerTIMER4>:
HandlerTIMER4:	HANDLER HandleTIMER4
 c00024c:	e24dd004 	sub	sp, sp, #4
 c000250:	e52d0004 	push	{r0}		; (str r0, [sp, #-4]!)
 c000254:	e59f03e0 	ldr	r0, [pc, #992]	; c00063c <U0+0xbc>
 c000258:	e5900000 	ldr	r0, [r0]
 c00025c:	e58d0004 	str	r0, [sp, #4]
 c000260:	e8bd8001 	pop	{r0, pc}

0c000264 <HandlerTIMER3>:
HandlerTIMER3:	HANDLER HandleTIMER3
 c000264:	e24dd004 	sub	sp, sp, #4
 c000268:	e52d0004 	push	{r0}		; (str r0, [sp, #-4]!)
 c00026c:	e59f03cc 	ldr	r0, [pc, #972]	; c000640 <U0+0xc0>
 c000270:	e5900000 	ldr	r0, [r0]
 c000274:	e58d0004 	str	r0, [sp, #4]
 c000278:	e8bd8001 	pop	{r0, pc}

0c00027c <HandlerTIMER2>:
HandlerTIMER2:	HANDLER HandleTIMER2
 c00027c:	e24dd004 	sub	sp, sp, #4
 c000280:	e52d0004 	push	{r0}		; (str r0, [sp, #-4]!)
 c000284:	e59f03b8 	ldr	r0, [pc, #952]	; c000644 <U0+0xc4>
 c000288:	e5900000 	ldr	r0, [r0]
 c00028c:	e58d0004 	str	r0, [sp, #4]
 c000290:	e8bd8001 	pop	{r0, pc}

0c000294 <HandlerTIMER1>:
HandlerTIMER1:	HANDLER HandleTIMER1
 c000294:	e24dd004 	sub	sp, sp, #4
 c000298:	e52d0004 	push	{r0}		; (str r0, [sp, #-4]!)
 c00029c:	e59f03a4 	ldr	r0, [pc, #932]	; c000648 <U0+0xc8>
 c0002a0:	e5900000 	ldr	r0, [r0]
 c0002a4:	e58d0004 	str	r0, [sp, #4]
 c0002a8:	e8bd8001 	pop	{r0, pc}

0c0002ac <HandlerTIMER0>:
HandlerTIMER0:	HANDLER HandleTIMER0
 c0002ac:	e24dd004 	sub	sp, sp, #4
 c0002b0:	e52d0004 	push	{r0}		; (str r0, [sp, #-4]!)
 c0002b4:	e59f0390 	ldr	r0, [pc, #912]	; c00064c <U0+0xcc>
 c0002b8:	e5900000 	ldr	r0, [r0]
 c0002bc:	e58d0004 	str	r0, [sp, #4]
 c0002c0:	e8bd8001 	pop	{r0, pc}

0c0002c4 <HandlerUERR01>:
HandlerUERR01:	HANDLER HandleUERR01
 c0002c4:	e24dd004 	sub	sp, sp, #4
 c0002c8:	e52d0004 	push	{r0}		; (str r0, [sp, #-4]!)
 c0002cc:	e59f037c 	ldr	r0, [pc, #892]	; c000650 <U0+0xd0>
 c0002d0:	e5900000 	ldr	r0, [r0]
 c0002d4:	e58d0004 	str	r0, [sp, #4]
 c0002d8:	e8bd8001 	pop	{r0, pc}

0c0002dc <HandlerWDT>:
HandlerWDT:		HANDLER HandleWDT
 c0002dc:	e24dd004 	sub	sp, sp, #4
 c0002e0:	e52d0004 	push	{r0}		; (str r0, [sp, #-4]!)
 c0002e4:	e59f0368 	ldr	r0, [pc, #872]	; c000654 <U0+0xd4>
 c0002e8:	e5900000 	ldr	r0, [r0]
 c0002ec:	e58d0004 	str	r0, [sp, #4]
 c0002f0:	e8bd8001 	pop	{r0, pc}

0c0002f4 <HandlerBDMA1>:
HandlerBDMA1:	HANDLER HandleBDMA1
 c0002f4:	e24dd004 	sub	sp, sp, #4
 c0002f8:	e52d0004 	push	{r0}		; (str r0, [sp, #-4]!)
 c0002fc:	e59f0354 	ldr	r0, [pc, #852]	; c000658 <U0+0xd8>
 c000300:	e5900000 	ldr	r0, [r0]
 c000304:	e58d0004 	str	r0, [sp, #4]
 c000308:	e8bd8001 	pop	{r0, pc}

0c00030c <HandlerBDMA0>:
HandlerBDMA0:	HANDLER HandleBDMA0
 c00030c:	e24dd004 	sub	sp, sp, #4
 c000310:	e52d0004 	push	{r0}		; (str r0, [sp, #-4]!)
 c000314:	e59f0340 	ldr	r0, [pc, #832]	; c00065c <U0+0xdc>
 c000318:	e5900000 	ldr	r0, [r0]
 c00031c:	e58d0004 	str	r0, [sp, #4]
 c000320:	e8bd8001 	pop	{r0, pc}

0c000324 <HandlerZDMA1>:
HandlerZDMA1:	HANDLER HandleZDMA1
 c000324:	e24dd004 	sub	sp, sp, #4
 c000328:	e52d0004 	push	{r0}		; (str r0, [sp, #-4]!)
 c00032c:	e59f032c 	ldr	r0, [pc, #812]	; c000660 <U0+0xe0>
 c000330:	e5900000 	ldr	r0, [r0]
 c000334:	e58d0004 	str	r0, [sp, #4]
 c000338:	e8bd8001 	pop	{r0, pc}

0c00033c <HandlerZDMA0>:
HandlerZDMA0:	HANDLER HandleZDMA0
 c00033c:	e24dd004 	sub	sp, sp, #4
 c000340:	e52d0004 	push	{r0}		; (str r0, [sp, #-4]!)
 c000344:	e59f0318 	ldr	r0, [pc, #792]	; c000664 <U0+0xe4>
 c000348:	e5900000 	ldr	r0, [r0]
 c00034c:	e58d0004 	str	r0, [sp, #4]
 c000350:	e8bd8001 	pop	{r0, pc}

0c000354 <HandlerTICK>:
HandlerTICK:	HANDLER HandleTICK
 c000354:	e24dd004 	sub	sp, sp, #4
 c000358:	e52d0004 	push	{r0}		; (str r0, [sp, #-4]!)
 c00035c:	e59f0304 	ldr	r0, [pc, #772]	; c000668 <U0+0xe8>
 c000360:	e5900000 	ldr	r0, [r0]
 c000364:	e58d0004 	str	r0, [sp, #4]
 c000368:	e8bd8001 	pop	{r0, pc}

0c00036c <HandlerEINT4567>:
HandlerEINT4567:HANDLER HandleEINT4567
 c00036c:	e24dd004 	sub	sp, sp, #4
 c000370:	e52d0004 	push	{r0}		; (str r0, [sp, #-4]!)
 c000374:	e59f02f0 	ldr	r0, [pc, #752]	; c00066c <U0+0xec>
 c000378:	e5900000 	ldr	r0, [r0]
 c00037c:	e58d0004 	str	r0, [sp, #4]
 c000380:	e8bd8001 	pop	{r0, pc}

0c000384 <HandlerEINT3>:
HandlerEINT3:	HANDLER HandleEINT3
 c000384:	e24dd004 	sub	sp, sp, #4
 c000388:	e52d0004 	push	{r0}		; (str r0, [sp, #-4]!)
 c00038c:	e59f02dc 	ldr	r0, [pc, #732]	; c000670 <U0+0xf0>
 c000390:	e5900000 	ldr	r0, [r0]
 c000394:	e58d0004 	str	r0, [sp, #4]
 c000398:	e8bd8001 	pop	{r0, pc}

0c00039c <HandlerEINT2>:
HandlerEINT2:	HANDLER HandleEINT2
 c00039c:	e24dd004 	sub	sp, sp, #4
 c0003a0:	e52d0004 	push	{r0}		; (str r0, [sp, #-4]!)
 c0003a4:	e59f02c8 	ldr	r0, [pc, #712]	; c000674 <U0+0xf4>
 c0003a8:	e5900000 	ldr	r0, [r0]
 c0003ac:	e58d0004 	str	r0, [sp, #4]
 c0003b0:	e8bd8001 	pop	{r0, pc}

0c0003b4 <HandlerEINT1>:
HandlerEINT1:	HANDLER HandleEINT1
 c0003b4:	e24dd004 	sub	sp, sp, #4
 c0003b8:	e52d0004 	push	{r0}		; (str r0, [sp, #-4]!)
 c0003bc:	e59f02b4 	ldr	r0, [pc, #692]	; c000678 <U0+0xf8>
 c0003c0:	e5900000 	ldr	r0, [r0]
 c0003c4:	e58d0004 	str	r0, [sp, #4]
 c0003c8:	e8bd8001 	pop	{r0, pc}

0c0003cc <HandlerEINT0>:
HandlerEINT0:	HANDLER HandleEINT0
 c0003cc:	e24dd004 	sub	sp, sp, #4
 c0003d0:	e52d0004 	push	{r0}		; (str r0, [sp, #-4]!)
 c0003d4:	e59f02a0 	ldr	r0, [pc, #672]	; c00067c <U0+0xfc>
 c0003d8:	e5900000 	ldr	r0, [r0]
 c0003dc:	e58d0004 	str	r0, [sp, #4]
 c0003e0:	e8bd8001 	pop	{r0, pc}

0c0003e4 <IsrIRQ>:

#One of the following two routines can be used for non-vectored interrupt.

IsrIRQ:						/* using I_ISPR register. */
    sub	    sp,sp,#4       	/* reserved for PC	  */
 c0003e4:	e24dd004 	sub	sp, sp, #4
    stmfd   sp!,{r8-r9}   
 c0003e8:	e92d0300 	push	{r8, r9}

#IMPORTANT CAUTION
# when I_ISPC is not used properly, I_ISPR can be 0 in this routine.

    ldr	    r9,=I_ISPR
 c0003ec:	e59f928c 	ldr	r9, [pc, #652]	; c000680 <U0+0x100>
    ldr	    r9,[r9]
 c0003f0:	e5999000 	ldr	r9, [r9]

	cmp		r9, #0x0		/* If the IDLE mode work-around is used, 	*/
 c0003f4:	e3590000 	cmp	r9, #0
							/* r9 may be 0 sometimes.			*/
	beq		l2
 c0003f8:	0a000009 	beq	c000424 <l2>

    mov	    r8,#0x0
 c0003fc:	e3a08000 	mov	r8, #0

0c000400 <l0>:
l0:
    movs    r9,r9,lsr #1
 c000400:	e1b090a9 	lsrs	r9, r9, #1
    bcs	    l1
 c000404:	2a000001 	bcs	c000410 <l1>
    add	    r8,r8,#4
 c000408:	e2888004 	add	r8, r8, #4
    b	    l0
 c00040c:	eafffffb 	b	c000400 <l0>

0c000410 <l1>:

l1:
    ldr	    r9,=HandleADC
 c000410:	e59f9200 	ldr	r9, [pc, #512]	; c000618 <U0+0x98>
    add	    r9,r9,r8
 c000414:	e0899008 	add	r9, r9, r8
    ldr	    r9,[r9]
 c000418:	e5999000 	ldr	r9, [r9]
    str	    r9,[sp,#8]
 c00041c:	e58d9008 	str	r9, [sp, #8]
    ldmfd   sp!,{r8-r9,pc}
 c000420:	e8bd8300 	pop	{r8, r9, pc}

0c000424 <l2>:

l2:
	ldmfd	sp!,{r8-r9}
 c000424:	e8bd0300 	pop	{r8, r9}
	add		sp,sp,#4
 c000428:	e28dd004 	add	sp, sp, #4
	subs	pc,lr,#4
 c00042c:	e25ef004 	subs	pc, lr, #4

0c000430 <ResetHandler>:

#****************************************************
#*	START											*
#****************************************************
ResetHandler:
    ldr	    r0,=WTCON	    	/* watch dog disable*/
 c000430:	e59f024c 	ldr	r0, [pc, #588]	; c000684 <U0+0x104>
    ldr	    r1,=0x0 		
 c000434:	e3a01000 	mov	r1, #0
    str	    r1,[r0]
 c000438:	e5801000 	str	r1, [r0]

    ldr	    r0,=INTMSK
 c00043c:	e59f0244 	ldr	r0, [pc, #580]	; c000688 <U0+0x108>
    ldr	    r1,=0x07ffffff  	/* all interrupt disable */
 c000440:	e3e0133e 	mvn	r1, #-134217728	; 0xf8000000
    str	    r1,[r0]
 c000444:	e5801000 	str	r1, [r0]

    #****************************************************
    #*	Set clock control registers						*
    #****************************************************
    ldr		r0,=LOCKTIME
 c000448:	e59f023c 	ldr	r0, [pc, #572]	; c00068c <U0+0x10c>
    ldr		r1,=0xfff
 c00044c:	e59f123c 	ldr	r1, [pc, #572]	; c000690 <U0+0x110>
    str		r1,[r0]
 c000450:	e5801000 	str	r1, [r0]

.if PLLONSTART
	ldr		r0,=PLLCON			/* temporary setting of PLL */
 c000454:	e3a00776 	mov	r0, #30932992	; 0x1d80000
	ldr		r1,=((M_DIV<<12)+(P_DIV<<4)+S_DIV)	/* Fin=8MHz,Fout=64MHz     */
 c000458:	e59f1234 	ldr	r1, [pc, #564]	; c000694 <U0+0x114>
	str		r1,[r0]
 c00045c:	e5801000 	str	r1, [r0]
.endif

    ldr	    r0,=CLKCON		
 c000460:	e59f0230 	ldr	r0, [pc, #560]	; c000698 <U0+0x118>
    ldr	    r1,=0x7ff8	    	/* All unit block CLK enable */
 c000464:	e59f1230 	ldr	r1, [pc, #560]	; c00069c <U0+0x11c>
    str	    r1,[r0]
 c000468:	e5801000 	str	r1, [r0]

    #****************************************
    #*  change BDMACON reset value for BDMA *   
    #****************************************
    ldr     r0,=BDIDES0      
 c00046c:	e59f022c 	ldr	r0, [pc, #556]	; c0006a0 <U0+0x120>
    ldr     r1,=0x40000000   	/* BDIDESn reset value should be 0x40000000 */
 c000470:	e3a01101 	mov	r1, #1073741824	; 0x40000000
    str     r1,[r0]
 c000474:	e5801000 	str	r1, [r0]

    ldr     r0,=BDIDES1      
 c000478:	e59f0224 	ldr	r0, [pc, #548]	; c0006a4 <U0+0x124>
    ldr     r1,=0x40000000   	/* BDIDESn reset value should be 0x40000000 */	 
 c00047c:	e3a01101 	mov	r1, #1073741824	; 0x40000000
    str     r1,[r0]
 c000480:	e5801000 	str	r1, [r0]

    #****************************************************
    #*	Set memory control registers					* 	
    #****************************************************
    ldr	    r0,=SMRDATA
 c000484:	e59f021c 	ldr	r0, [pc, #540]	; c0006a8 <U0+0x128>
    ldmia   r0,{r1-r13}
 c000488:	e8903ffe 	ldm	r0, {r1, r2, r3, r4, r5, r6, r7, r8, r9, sl, fp, ip, sp}
    ldr	    r0,=0x01c80000  	/* BWSCON Address */
 c00048c:	e3a00772 	mov	r0, #29884416	; 0x1c80000
    stmia   r0,{r1-r13}
 c000490:	e8803ffe 	stm	r0, {r1, r2, r3, r4, r5, r6, r7, r8, r9, sl, fp, ip, sp}

    #;****************************************************
    #;*	Initialize stacks								* 
    #;****************************************************
    ldr	    sp, =SVCStack		/* Why	*/		
 c000494:	e59fd210 	ldr	sp, [pc, #528]	; c0006ac <U0+0x12c>
    bl	    InitStacks
 c000498:	eb000015 	bl	c0004f4 <InitStacks>

    #;****************************************************
    #;*	Setup IRQ handler								*
    #;****************************************************
    ldr	    r0,=HandleIRQ		/* This routine is needed */
 c00049c:	e59f0160 	ldr	r0, [pc, #352]	; c000604 <U0+0x84>
    ldr	    r1,=IsrIRQ			/* if there is not 'subs pc,lr,#4' at 0x18, 0x1c */
 c0004a0:	e59f1208 	ldr	r1, [pc, #520]	; c0006b0 <U0+0x130>
    str	    r1,[r0]
 c0004a4:	e5801000 	str	r1, [r0]

    #********************************************************
    #*	Copy and paste RW data/zero initialized data	    *
    #********************************************************
    LDR	    r0, =Image_RO_Limit	/* Get pointer to ROM data */
 c0004a8:	e59f0204 	ldr	r0, [pc, #516]	; c0006b4 <U0+0x134>
    LDR	    r1, =Image_RW_Base	/* and RAM copy	*/
 c0004ac:	e59f1204 	ldr	r1, [pc, #516]	; c0006b8 <U0+0x138>
    LDR	    r3, =Image_ZI_Base	
 c0004b0:	e59f3204 	ldr	r3, [pc, #516]	; c0006bc <U0+0x13c>
	/* Zero init base => top of initialised data */
			
    CMP	    r0, r1	    		/* Check that they are different */
 c0004b4:	e1500001 	cmp	r0, r1
    BEQ	    F1
 c0004b8:	0a000003 	beq	c0004cc <F1>

0c0004bc <F0>:
F0:
    CMP	    r1, r3				/* Copy init data                        */
 c0004bc:	e1510003 	cmp	r1, r3
    LDRCC   r2, [r0], #4        /* --> LDRCC r2, [r0] + ADD r0, r0, #4	 */
 c0004c0:	34902004 	ldrcc	r2, [r0], #4
    STRCC   r2, [r1], #4        /* --> STRCC r2, [r1] + ADD r1, r1, #4   */ 
 c0004c4:	34812004 	strcc	r2, [r1], #4
    BCC	    F0
 c0004c8:	3afffffb 	bcc	c0004bc <F0>

0c0004cc <F1>:
F1:
    LDR	    r1, =Image_ZI_Limit	/* Top of zero init segment */
 c0004cc:	e59f11ec 	ldr	r1, [pc, #492]	; c0006c0 <U0+0x140>
    MOV	    r2, #0
 c0004d0:	e3a02000 	mov	r2, #0

0c0004d4 <F2>:
F2:
    CMP	    r3, r1	    		/* Zero init */
 c0004d4:	e1530001 	cmp	r3, r1
    STRCC   r2, [r3], #4
 c0004d8:	34832004 	strcc	r2, [r3], #4
    BCC	    F2
 c0004dc:	3afffffc 	bcc	c0004d4 <F2>

	MRS	r0, CPSR
 c0004e0:	e10f0000 	mrs	r0, CPSR
	BIC	r0, r0, #NOINT /* enable interrupt */
 c0004e4:	e3c000c0 	bic	r0, r0, #192	; 0xc0
	MSR	CPSR_cxsf, r0
 c0004e8:	e12ff000 	msr	CPSR_fsxc, r0
	/* jump to main() */
   	BL	Main
 c0004ec:	eb000230 	bl	c000db4 <Main>
   	B   .	    
 c0004f0:	eafffffe 	b	c0004f0 <F2+0x1c>

0c0004f4 <InitStacks>:
InitStacks:
	# Don't use DRAM,such as stmfd,ldmfd......
	# SVCstack is initialized before
	# Under toolkit ver 2.50, 'msr cpsr,r1' can be used instead of 'msr cpsr_cxsf,r1'

    mrs	    r0,cpsr
 c0004f4:	e10f0000 	mrs	r0, CPSR
    bic	    r0,r0,#MODEMASK
 c0004f8:	e3c0001f 	bic	r0, r0, #31
    orr	    r1,r0,#UNDEFMODE
 c0004fc:	e380101b 	orr	r1, r0, #27
    msr	    cpsr_cxsf,r1		/* UndefMode */
 c000500:	e12ff001 	msr	CPSR_fsxc, r1
    ldr	    sp,=UndefStack
 c000504:	e59fd1b8 	ldr	sp, [pc, #440]	; c0006c4 <U0+0x144>
	
    orr	    r1,r0,#ABORTMODE|NOINT
 c000508:	e38010d7 	orr	r1, r0, #215	; 0xd7
    msr	    cpsr_cxsf,r1 	    /* AbortMode */	
 c00050c:	e12ff001 	msr	CPSR_fsxc, r1
    ldr	    sp,=AbortStack
 c000510:	e59fd1b0 	ldr	sp, [pc, #432]	; c0006c8 <U0+0x148>

    orr	    r1,r0,#IRQMODE|FIQ_MODE
 c000514:	e3801092 	orr	r1, r0, #146	; 0x92
    msr	    cpsr_cxsf,r1 	    /* IRQMode */
 c000518:	e12ff001 	msr	CPSR_fsxc, r1
    ldr	    sp,=IRQStack
 c00051c:	e59fd1a8 	ldr	sp, [pc, #424]	; c0006cc <U0+0x14c>
	
    orr	    r1,r0,#FIQMODE|IRQ_MODE
 c000520:	e3801051 	orr	r1, r0, #81	; 0x51
    msr	    cpsr_cxsf,r1 	    /* FIQMode */
 c000524:	e12ff001 	msr	CPSR_fsxc, r1
    ldr	    sp,=FIQStack
 c000528:	e59fd1a0 	ldr	sp, [pc, #416]	; c0006d0 <U0+0x150>

    bic	    r0,r0,#MODEMASK
 c00052c:	e3c0001f 	bic	r0, r0, #31
    orr	    r1,r0,#SVCMODE
 c000530:	e3801013 	orr	r1, r0, #19
    msr	    cpsr_cxsf,r1 	    /* SVCMode */
 c000534:	e12ff001 	msr	CPSR_fsxc, r1
    ldr	    sp,=SVCStack
 c000538:	e59fd16c 	ldr	sp, [pc, #364]	; c0006ac <U0+0x12c>

	#USER mode is not initialized.
    mov	    pc,lr 				/* The LR register may be not valid for the mode changes. */
 c00053c:	e1a0f00e 	mov	pc, lr

0c000540 <EnterPWDN>:
#****************************************************
#*	The function for entering power down mode		*
#****************************************************
#void EnterPWDN(int CLKCON);
EnterPWDN:
    mov	    r2,r0               /* r0=CLKCON */
 c000540:	e1a02000 	mov	r2, r0
    ldr	    r0,=REFRESH		
 c000544:	e59f0188 	ldr	r0, [pc, #392]	; c0006d4 <U0+0x154>
    ldr	    r3,[r0]
 c000548:	e5903000 	ldr	r3, [r0]
    mov	    r1, r3
 c00054c:	e1a01003 	mov	r1, r3
    orr	    r1, r1, #0x400000   /* self-refresh enable */
 c000550:	e3811501 	orr	r1, r1, #4194304	; 0x400000
    str	    r1, [r0]
 c000554:	e5801000 	str	r1, [r0]

    nop     /* Wait until self-refresh is issued. May not be needed. */
 c000558:	e1a00000 	nop			; (mov r0, r0)
    nop     /* If the other bus master holds the bus, ... */
 c00055c:	e1a00000 	nop			; (mov r0, r0)
    nop	    /* mov r0, r0 */
 c000560:	e1a00000 	nop			; (mov r0, r0)
    nop
 c000564:	e1a00000 	nop			; (mov r0, r0)
    nop
 c000568:	e1a00000 	nop			; (mov r0, r0)
    nop
 c00056c:	e1a00000 	nop			; (mov r0, r0)
    nop
 c000570:	e1a00000 	nop			; (mov r0, r0)

#enter POWERDN mode
    ldr	    r0,=CLKCON
 c000574:	e59f011c 	ldr	r0, [pc, #284]	; c000698 <U0+0x118>
    str	    r2,[r0]
 c000578:	e5802000 	str	r2, [r0]

#wait until enter SL_IDLE,STOP mode and until wake-up
    ldr	    r0,=0x10
 c00057c:	e3a00010 	mov	r0, #16

0c000580 <U0>:
U0: subs    r0,r0,#1
 c000580:	e2500001 	subs	r0, r0, #1
    bne	    U0
 c000584:	1afffffd 	bne	c000580 <U0>

#exit from DRAM/SDRAM self refresh mode.
    ldr	    r0,=REFRESH
 c000588:	e59f0144 	ldr	r0, [pc, #324]	; c0006d4 <U0+0x154>
    str	    r3,[r0]
 c00058c:	e5803000 	str	r3, [r0]
    mov	    pc,lr
 c000590:	e1a0f00e 	mov	pc, lr
 c000594:	0c0003cc 	.word	0x0c0003cc
 c000598:	0c0003b4 	.word	0x0c0003b4
 c00059c:	0c00039c 	.word	0x0c00039c
 c0005a0:	0c000384 	.word	0x0c000384
 c0005a4:	0c00036c 	.word	0x0c00036c
 c0005a8:	0c000354 	.word	0x0c000354
 c0005ac:	0c00033c 	.word	0x0c00033c
 c0005b0:	0c000324 	.word	0x0c000324
 c0005b4:	0c00030c 	.word	0x0c00030c
 c0005b8:	0c0002f4 	.word	0x0c0002f4
 c0005bc:	0c0002dc 	.word	0x0c0002dc
 c0005c0:	0c0002c4 	.word	0x0c0002c4
 c0005c4:	0c0002ac 	.word	0x0c0002ac
 c0005c8:	0c000294 	.word	0x0c000294
 c0005cc:	0c00027c 	.word	0x0c00027c
 c0005d0:	0c000264 	.word	0x0c000264
 c0005d4:	0c00024c 	.word	0x0c00024c
 c0005d8:	0c000234 	.word	0x0c000234
 c0005dc:	0c00021c 	.word	0x0c00021c
 c0005e0:	0c000204 	.word	0x0c000204
 c0005e4:	0c0001ec 	.word	0x0c0001ec
 c0005e8:	0c0001d4 	.word	0x0c0001d4
 c0005ec:	0c0001bc 	.word	0x0c0001bc
 c0005f0:	0c0001a4 	.word	0x0c0001a4
 c0005f4:	0c00018c 	.word	0x0c00018c
 c0005f8:	0c000174 	.word	0x0c000174
 c0005fc:	0c000540 	.word	0x0c000540
 c000600:	0c7fff1c 	.word	0x0c7fff1c
 c000604:	0c7fff18 	.word	0x0c7fff18
 c000608:	0c7fff04 	.word	0x0c7fff04
 c00060c:	0c7fff08 	.word	0x0c7fff08
 c000610:	0c7fff10 	.word	0x0c7fff10
 c000614:	0c7fff0c 	.word	0x0c7fff0c
 c000618:	0c7fff20 	.word	0x0c7fff20
 c00061c:	0c7fff24 	.word	0x0c7fff24
 c000620:	0c7fff28 	.word	0x0c7fff28
 c000624:	0c7fff2c 	.word	0x0c7fff2c
 c000628:	0c7fff30 	.word	0x0c7fff30
 c00062c:	0c7fff34 	.word	0x0c7fff34
 c000630:	0c7fff38 	.word	0x0c7fff38
 c000634:	0c7fff3c 	.word	0x0c7fff3c
 c000638:	0c7fff40 	.word	0x0c7fff40
 c00063c:	0c7fff44 	.word	0x0c7fff44
 c000640:	0c7fff48 	.word	0x0c7fff48
 c000644:	0c7fff4c 	.word	0x0c7fff4c
 c000648:	0c7fff50 	.word	0x0c7fff50
 c00064c:	0c7fff54 	.word	0x0c7fff54
 c000650:	0c7fff58 	.word	0x0c7fff58
 c000654:	0c7fff5c 	.word	0x0c7fff5c
 c000658:	0c7fff60 	.word	0x0c7fff60
 c00065c:	0c7fff64 	.word	0x0c7fff64
 c000660:	0c7fff68 	.word	0x0c7fff68
 c000664:	0c7fff6c 	.word	0x0c7fff6c
 c000668:	0c7fff70 	.word	0x0c7fff70
 c00066c:	0c7fff74 	.word	0x0c7fff74
 c000670:	0c7fff78 	.word	0x0c7fff78
 c000674:	0c7fff7c 	.word	0x0c7fff7c
 c000678:	0c7fff80 	.word	0x0c7fff80
 c00067c:	0c7fff84 	.word	0x0c7fff84
 c000680:	01e00020 	.word	0x01e00020
 c000684:	01d30000 	.word	0x01d30000
 c000688:	01e0000c 	.word	0x01e0000c
 c00068c:	01d8000c 	.word	0x01d8000c
 c000690:	00000fff 	.word	0x00000fff
 c000694:	00038021 	.word	0x00038021
 c000698:	01d80004 	.word	0x01d80004
 c00069c:	00007ff8 	.word	0x00007ff8
 c0006a0:	01f80008 	.word	0x01f80008
 c0006a4:	01f80028 	.word	0x01f80028
 c0006a8:	0c0006d8 	.word	0x0c0006d8
 c0006ac:	0c7ff100 	.word	0x0c7ff100
 c0006b0:	0c0003e4 	.word	0x0c0003e4
 c0006b4:	0c003134 	.word	0x0c003134
 c0006b8:	0c003134 	.word	0x0c003134
 c0006bc:	0c0031e8 	.word	0x0c0031e8
 c0006c0:	0c003250 	.word	0x0c003250
 c0006c4:	0c7ff200 	.word	0x0c7ff200
 c0006c8:	0c7ff300 	.word	0x0c7ff300
 c0006cc:	0c7ff400 	.word	0x0c7ff400
 c0006d0:	0c7ff500 	.word	0x0c7ff500
 c0006d4:	01c80024 	.word	0x01c80024

0c0006d8 <SMRDATA>:
 c0006d8:	11110102 	.word	0x11110102
 c0006dc:	00000600 	.word	0x00000600
 c0006e0:	00007ffc 	.word	0x00007ffc
 c0006e4:	00007ffc 	.word	0x00007ffc
 c0006e8:	00007ffc 	.word	0x00007ffc
 c0006ec:	00007ffc 	.word	0x00007ffc
 c0006f0:	00007ffc 	.word	0x00007ffc
 c0006f4:	00018000 	.word	0x00018000
 c0006f8:	00018000 	.word	0x00018000
 c0006fc:	00860459 	.word	0x00860459
 c000700:	00000010 	.word	0x00000010
 c000704:	00000020 	.word	0x00000020
 c000708:	00000020 	.word	0x00000020

0c00070c <Delay>:
void Delay(int time)
// time=0: adjust the Delay function by WatchDog timer
// time>0: the number of loop time
// 100us resolution
// Delay(10) -> 10*100us resolution
{
 c00070c:	e1a0c00d 	mov	ip, sp
	int i,adjust = 0;
	if (time == 0)
 c000710:	e3500000 	cmp	r0, #0
void Delay(int time)
// time=0: adjust the Delay function by WatchDog timer
// time>0: the number of loop time
// 100us resolution
// Delay(10) -> 10*100us resolution
{
 c000714:	e92dd818 	push	{r3, r4, fp, ip, lr, pc}
 c000718:	e24cb004 	sub	fp, ip, #4
	int i,adjust = 0;
	if (time == 0)
 c00071c:	1a000010 	bne	c000764 <Delay+0x58>
	{
		time = 200;
		adjust = 1;
		delayLoopCount = 400;
		rWTCON = ((MCLK/1000000 - 1)<<8) | (2<<3);	// 1M/64,Watch-dog,nRESET,interrupt disable//
 c000720:	e59f3048 	ldr	r3, [pc, #72]	; c000770 <Delay+0x64>
 c000724:	e59f4048 	ldr	r4, [pc, #72]	; c000774 <Delay+0x68>
		rWTDAT = 0xffff;
 c000728:	e59fe048 	ldr	lr, [pc, #72]	; c000778 <Delay+0x6c>
		rWTCNT = 0xffff;
		rWTCON = ((MCLK/1000000 - 1)<<8)|(2<<3)|(1<<5); // 1M/64,Watch-dog enable,nRESET,interrupt disable //
 c00072c:	e59fc048 	ldr	ip, [pc, #72]	; c00077c <Delay+0x70>
	if (time == 0)
	{
		time = 200;
		adjust = 1;
		delayLoopCount = 400;
		rWTCON = ((MCLK/1000000 - 1)<<8) | (2<<3);	// 1M/64,Watch-dog,nRESET,interrupt disable//
 c000730:	e5834000 	str	r4, [r3]
		rWTDAT = 0xffff;
 c000734:	e583e004 	str	lr, [r3, #4]
		rWTCNT = 0xffff;
 c000738:	e583e008 	str	lr, [r3, #8]
		rWTCON = ((MCLK/1000000 - 1)<<8)|(2<<3)|(1<<5); // 1M/64,Watch-dog enable,nRESET,interrupt disable //
 c00073c:	e583c000 	str	ip, [r3]
	}
	for (; time>0; time--)
		for (i = 0; i < delayLoopCount; i++);
	if (adjust == 1)
	{
		rWTCON = ((MCLK/1000000 - 1)<<8)|(2<<3);
 c000740:	e5834000 	str	r4, [r3]
		i = 0xffff - rWTCNT;   //  1count/16us?????????//
 c000744:	e5932008 	ldr	r2, [r3, #8]
 c000748:	e2620cff 	rsb	r0, r2, #65280	; 0xff00
 c00074c:	e28010ff 	add	r1, r0, #255	; 0xff
		delayLoopCount = 8000000/(i*64);	//400*100/(i*64/200)   //
 c000750:	e1a01301 	lsl	r1, r1, #6
 c000754:	e59f0024 	ldr	r0, [pc, #36]	; c000780 <Delay+0x74>
 c000758:	eb0009e2 	bl	c002ee8 <__aeabi_idiv>
	int i,adjust = 0;
	if (time == 0)
	{
		time = 200;
		adjust = 1;
		delayLoopCount = 400;
 c00075c:	e59f4020 	ldr	r4, [pc, #32]	; c000784 <Delay+0x78>
		for (i = 0; i < delayLoopCount; i++);
	if (adjust == 1)
	{
		rWTCON = ((MCLK/1000000 - 1)<<8)|(2<<3);
		i = 0xffff - rWTCNT;   //  1count/16us?????????//
		delayLoopCount = 8000000/(i*64);	//400*100/(i*64/200)   //
 c000760:	e5840000 	str	r0, [r4]
	}
}
 c000764:	e24bd014 	sub	sp, fp, #20
 c000768:	e89d6818 	ldm	sp, {r3, r4, fp, sp, lr}
 c00076c:	e12fff1e 	bx	lr
 c000770:	01d30000 	.word	0x01d30000
 c000774:	00003f10 	.word	0x00003f10
 c000778:	0000ffff 	.word	0x0000ffff
 c00077c:	00003f30 	.word	0x00003f30
 c000780:	007a1200 	.word	0x007a1200
 c000784:	0c00313c 	.word	0x0c00313c

0c000788 <DelayMs>:
{
	int i;

	for (i = 0; i < 1000*ms_time ; i++)
		;
}
 c000788:	e12fff1e 	bx	lr

0c00078c <Port_Init>:

	// PORT A GROUP
	// BIT 	9	8	7	6	5	4	3	2	1	0
	// 		A24	A23	A22	A21	A20	A19	A18	A17	A16	A0
	//		0	1	1	1	1	1	1	1	1	1
	rPCONA = 0x1ff;
 c00078c:	e59f309c 	ldr	r3, [pc, #156]	; c000830 <Port_Init+0xa4>
 c000790:	e59f009c 	ldr	r0, [pc, #156]	; c000834 <Port_Init+0xa8>
	// PORT B GROUP
	// BIT 	10		9		8		7		6		5		4		3		2		1		0
	//		/CS5	/CS4	/CS3	/CS2	/CS1	GPB5	GPB4	/SRAS	/SCAS	SCLK	SCKE
	//		EXT		NIC		USB		IDE		SMC		NC		NC		Sdram	Sdram	Sdram	Sdram
	//      1, 		1,   	1,   	1,    	1,    	0,       0,     1,    	1,    	1,   	1
	rPDATB = 0x7ff;
 c000794:	e59fc09c 	ldr	ip, [pc, #156]	; c000838 <Port_Init+0xac>

	// PORT A GROUP
	// BIT 	9	8	7	6	5	4	3	2	1	0
	// 		A24	A23	A22	A21	A20	A19	A18	A17	A16	A0
	//		0	1	1	1	1	1	1	1	1	1
	rPCONA = 0x1ff;
 c000798:	e5830000 	str	r0, [r3]
	// PORT B GROUP
	// BIT 	10		9		8		7		6		5		4		3		2		1		0
	//		/CS5	/CS4	/CS3	/CS2	/CS1	GPB5	GPB4	/SRAS	/SCAS	SCLK	SCKE
	//		EXT		NIC		USB		IDE		SMC		NC		NC		Sdram	Sdram	Sdram	Sdram
	//      1, 		1,   	1,   	1,    	1,    	0,       0,     1,    	1,    	1,   	1
	rPDATB = 0x7ff;
 c00079c:	e583c00c 	str	ip, [r3, #12]
	rPCONB = 0x1cf;			// P9-LED1 P10-LED2
 c0007a0:	e59fc094 	ldr	ip, [pc, #148]	; c00083c <Port_Init+0xb0>
 c0007a4:	e583c008 	str	ip, [r3, #8]

	//  PC7		6		5		4		3		2		1		0
	//   I		I		I		I		I		I		I		I
	//   NC		NC		NC		NC		IISCLK	IISDI	IISDO	IISLRCK
	//   00		00		00		00		11		11		11		11
	rPDATC = 0xff00;
 c0007a8:	e3a0ccff 	mov	ip, #65280	; 0xff00
 c0007ac:	e583c014 	str	ip, [r3, #20]
	rPCONC = 0x0ff0ffff;
 c0007b0:	e59fc088 	ldr	ip, [pc, #136]	; c000840 <Port_Init+0xb4>
 c0007b4:	e583c010 	str	ip, [r3, #16]
	rPUPC  = 0x30ff;	//PULL UP RESISTOR should be enabled to I/O
 c0007b8:	e59fc084 	ldr	ip, [pc, #132]	; c000844 <Port_Init+0xb8>
 c0007bc:	e583c018 	str	ip, [r3, #24]
	// PORT D GROUP(I/O OR LCD)
	// BIT7		6		5		4		3		2		1		0
	//	VF		VM		VLINE	VCLK	VD3		VD2		VD1		VD0
	//	00		00		00		00		00		00		00		00
	rPDATD= 0xff;
	rPCOND= 0xaaaa;
 c0007c0:	e59fc080 	ldr	ip, [pc, #128]	; c000848 <Port_Init+0xbc>
	// PORT D GROUP
	// PORT D GROUP(I/O OR LCD)
	// BIT7		6		5		4		3		2		1		0
	//	VF		VM		VLINE	VCLK	VD3		VD2		VD1		VD0
	//	00		00		00		00		00		00		00		00
	rPDATD= 0xff;
 c0007c4:	e3a010ff 	mov	r1, #255	; 0xff
 c0007c8:	e5831020 	str	r1, [r3, #32]
	rPCOND= 0xaaaa;
	rPUPD = 0x0;
 c0007cc:	e3a02000 	mov	r2, #0
	// PORT D GROUP(I/O OR LCD)
	// BIT7		6		5		4		3		2		1		0
	//	VF		VM		VLINE	VCLK	VD3		VD2		VD1		VD0
	//	00		00		00		00		00		00		00		00
	rPDATD= 0xff;
	rPCOND= 0xaaaa;
 c0007d0:	e583c01c 	str	ip, [r3, #28]
	// PORT E GROUP
	// Bit	8		7		6		5		4		3		2		1		0
	//  	CODECLK	LED4	LED5	LED6	LED7	BEEP	RXD0	TXD0	LcdDisp
	//  	10		01		01		01		01		01		10		10		01
	rPDATE	= 0x1ff;
	rPCONE	= 0x25529;
 c0007d4:	e280ca25 	add	ip, r0, #151552	; 0x25000
	// BIT7		6		5		4		3		2		1		0
	//	VF		VM		VLINE	VCLK	VD3		VD2		VD1		VD0
	//	00		00		00		00		00		00		00		00
	rPDATD= 0xff;
	rPCOND= 0xaaaa;
	rPUPD = 0x0;
 c0007d8:	e5832024 	str	r2, [r3, #36]	; 0x24

	// PORT E GROUP
	// Bit	8		7		6		5		4		3		2		1		0
	//  	CODECLK	LED4	LED5	LED6	LED7	BEEP	RXD0	TXD0	LcdDisp
	//  	10		01		01		01		01		01		10		10		01
	rPDATE	= 0x1ff;
 c0007dc:	e583002c 	str	r0, [r3, #44]	; 0x2c
	rPCONE	= 0x25529;
 c0007e0:	e28c0fca 	add	r0, ip, #808	; 0x328
 c0007e4:	e280c002 	add	ip, r0, #2
 c0007e8:	e583c028 	str	ip, [r3, #40]	; 0x28
	rPUPE	= 0x6;
 c0007ec:	e3a00006 	mov	r0, #6
	// PORT F GROUP
	// Bit8		7		6		5		 4		3		2		1		0
	// IISCLK	IISDI	IISDO	IISLRCK	Input	Input	Input	IICSDA	IICSCL
	// 100		100		100		100		00		00		00		10		10
	rPDATF = 0x0;
	rPCONF = 0x252a;
 c0007f0:	e59fc054 	ldr	ip, [pc, #84]	; c00084c <Port_Init+0xc0>
	// Bit	8		7		6		5		4		3		2		1		0
	//  	CODECLK	LED4	LED5	LED6	LED7	BEEP	RXD0	TXD0	LcdDisp
	//  	10		01		01		01		01		01		10		10		01
	rPDATE	= 0x1ff;
	rPCONE	= 0x25529;
	rPUPE	= 0x6;
 c0007f4:	e5830030 	str	r0, [r3, #48]	; 0x30
	// BIT7		6		5		4		3		2		1		0
	// 	INT7	INT6	INT5	INT4	INT3	INT2	INT1	INT0
	//	S3		S4		S5		S6		NIC		EXT		IDE		USB
	//	11      11      11      11      11      11      11      11
	rPDATG = 0xff;
	rPCONG = 0xffff;
 c0007f8:	e2810cff 	add	r0, r1, #65280	; 0xff00

	// PORT F GROUP
	// Bit8		7		6		5		 4		3		2		1		0
	// IISCLK	IISDI	IISDO	IISLRCK	Input	Input	Input	IICSDA	IICSCL
	// 100		100		100		100		00		00		00		10		10
	rPDATF = 0x0;
 c0007fc:	e5832038 	str	r2, [r3, #56]	; 0x38
	rPCONF = 0x252a;
 c000800:	e583c034 	str	ip, [r3, #52]	; 0x34
	rPUPF  = 0x0;
 c000804:	e583203c 	str	r2, [r3, #60]	; 0x3c
	// PORT G GROUP
	// BIT7		6		5		4		3		2		1		0
	// 	INT7	INT6	INT5	INT4	INT3	INT2	INT1	INT0
	//	S3		S4		S5		S6		NIC		EXT		IDE		USB
	//	11      11      11      11      11      11      11      11
	rPDATG = 0xff;
 c000808:	e5831044 	str	r1, [r3, #68]	; 0x44
	rPCONG = 0xffff;
 c00080c:	e5830040 	str	r0, [r3, #64]	; 0x40
	rPUPG  = 0x0;		//pull-up portG enabled
	rSPUCR = 0x7;  		//D15-D0 pull-up disable

	/* Non Cache area */
	rNCACHBE0 = ((Non_Cache_End>>12)<<16) | (Non_Cache_Start>>12);
 c000810:	e59f0038 	ldr	r0, [pc, #56]	; c000850 <Port_Init+0xc4>
	//	S3		S4		S5		S6		NIC		EXT		IDE		USB
	//	11      11      11      11      11      11      11      11
	rPDATG = 0xff;
	rPCONG = 0xffff;
	rPUPG  = 0x0;		//pull-up portG enabled
	rSPUCR = 0x7;  		//D15-D0 pull-up disable
 c000814:	e3a0c007 	mov	ip, #7

	/* Non Cache area */
	rNCACHBE0 = ((Non_Cache_End>>12)<<16) | (Non_Cache_Start>>12);
 c000818:	e3a01507 	mov	r1, #29360128	; 0x1c00000
	// 	INT7	INT6	INT5	INT4	INT3	INT2	INT1	INT0
	//	S3		S4		S5		S6		NIC		EXT		IDE		USB
	//	11      11      11      11      11      11      11      11
	rPDATG = 0xff;
	rPCONG = 0xffff;
	rPUPG  = 0x0;		//pull-up portG enabled
 c00081c:	e5832048 	str	r2, [r3, #72]	; 0x48
	rSPUCR = 0x7;  		//D15-D0 pull-up disable
 c000820:	e583c04c 	str	ip, [r3, #76]	; 0x4c

	/* Non Cache area */
	rNCACHBE0 = ((Non_Cache_End>>12)<<16) | (Non_Cache_Start>>12);
 c000824:	e5810004 	str	r0, [r1, #4]

	/* Low level default */
	rEXTINT = 0x0;
 c000828:	e5832050 	str	r2, [r3, #80]	; 0x50
}
 c00082c:	e12fff1e 	bx	lr
 c000830:	01d20000 	.word	0x01d20000
 c000834:	000001ff 	.word	0x000001ff
 c000838:	000007ff 	.word	0x000007ff
 c00083c:	000001cf 	.word	0x000001cf
 c000840:	0ff0ffff 	.word	0x0ff0ffff
 c000844:	000030ff 	.word	0x000030ff
 c000848:	0000aaaa 	.word	0x0000aaaa
 c00084c:	0000252a 	.word	0x0000252a
 c000850:	c0002000 	.word	0xc0002000

0c000854 <malloc>:
//--------------------------------HEAP---------------------------------//
void *malloc(unsigned nbyte)
/* Very simple; Use malloc() & free() like Stack */
// void *mallocPt=Image$$RW$$Limit;
{
	void *returnPt = mallocPt;
 c000854:	e59f102c 	ldr	r1, [pc, #44]	; c000888 <malloc+0x34>

	mallocPt = (int *) mallocPt +nbyte/4 + ((nbyte%4)>0); //to align 4byte
 c000858:	e2103003 	ands	r3, r0, #3
//--------------------------------HEAP---------------------------------//
void *malloc(unsigned nbyte)
/* Very simple; Use malloc() & free() like Stack */
// void *mallocPt=Image$$RW$$Limit;
{
	void *returnPt = mallocPt;
 c00085c:	e5912004 	ldr	r2, [r1, #4]

	mallocPt = (int *) mallocPt +nbyte/4 + ((nbyte%4)>0); //to align 4byte
 c000860:	13a03001 	movne	r3, #1
 c000864:	e083c120 	add	ip, r3, r0, lsr #2

	if ((int)mallocPt > HEAPEND)
 c000868:	e59f001c 	ldr	r0, [pc, #28]	; c00088c <malloc+0x38>
/* Very simple; Use malloc() & free() like Stack */
// void *mallocPt=Image$$RW$$Limit;
{
	void *returnPt = mallocPt;

	mallocPt = (int *) mallocPt +nbyte/4 + ((nbyte%4)>0); //to align 4byte
 c00086c:	e082310c 	add	r3, r2, ip, lsl #2

	if ((int)mallocPt > HEAPEND)
 c000870:	e1530000 	cmp	r3, r0
/* Very simple; Use malloc() & free() like Stack */
// void *mallocPt=Image$$RW$$Limit;
{
	void *returnPt = mallocPt;

	mallocPt = (int *) mallocPt +nbyte/4 + ((nbyte%4)>0); //to align 4byte
 c000874:	e5813004 	str	r3, [r1, #4]

	if ((int)mallocPt > HEAPEND)
	{
		mallocPt = returnPt;
 c000878:	c5812004 	strgt	r2, [r1, #4]
		return NULL;
 c00087c:	c3a02000 	movgt	r2, #0
	}
	return returnPt;
}
 c000880:	e1a00002 	mov	r0, r2
 c000884:	e12fff1e 	bx	lr
 c000888:	0c00313c 	.word	0x0c00313c
 c00088c:	0c7ff000 	.word	0x0c7ff000

0c000890 <free>:

void free(void *pt)
{
	mallocPt = pt;
 c000890:	e59f3004 	ldr	r3, [pc, #4]	; c00089c <free+0xc>
 c000894:	e5830004 	str	r0, [r3, #4]
}
 c000898:	e12fff1e 	bx	lr
 c00089c:	0c00313c 	.word	0x0c00313c

0c0008a0 <sys_init>:

//--------------------------------INIT---------------------------------//
void sys_init()// Interrupt & Port
{
 c0008a0:	e1a0c00d 	mov	ip, sp
 c0008a4:	e92dd878 	push	{r3, r4, r5, r6, fp, ip, lr, pc}
	/* enable interrupt */
	rINTMOD = 0x0;
 c0008a8:	e3a01000 	mov	r1, #0
 c0008ac:	e3a0461e 	mov	r4, #31457280	; 0x1e00000
	rINTCON = 0x1;
 c0008b0:	e3a06001 	mov	r6, #1

//--------------------------------INIT---------------------------------//
void sys_init()// Interrupt & Port
{
	/* enable interrupt */
	rINTMOD = 0x0;
 c0008b4:	e5841008 	str	r1, [r4, #8]
	rINTCON = 0x1;
	rI_ISPC = 0xffffffff;			// clear all interrupt pend
	rEXTINTPND = 0xf;				  // clear EXTINTPND reg
 c0008b8:	e59f3100 	ldr	r3, [pc, #256]	; c0009c0 <sys_init+0x120>
//--------------------------------INIT---------------------------------//
void sys_init()// Interrupt & Port
{
	/* enable interrupt */
	rINTMOD = 0x0;
	rINTCON = 0x1;
 c0008bc:	e5846000 	str	r6, [r4]
	rI_ISPC = 0xffffffff;			// clear all interrupt pend
 c0008c0:	e3e06000 	mvn	r6, #0
 c0008c4:	e5846024 	str	r6, [r4, #36]	; 0x24

	// PORT A GROUP
	// BIT 	9	8	7	6	5	4	3	2	1	0
	// 		A24	A23	A22	A21	A20	A19	A18	A17	A16	A0
	//		0	1	1	1	1	1	1	1	1	1
	rPCONA = 0x1ff;
 c0008c8:	e59f50f4 	ldr	r5, [pc, #244]	; c0009c4 <sys_init+0x124>
{
	/* enable interrupt */
	rINTMOD = 0x0;
	rINTCON = 0x1;
	rI_ISPC = 0xffffffff;			// clear all interrupt pend
	rEXTINTPND = 0xf;				  // clear EXTINTPND reg
 c0008cc:	e3a0600f 	mov	r6, #15
 c0008d0:	e5836054 	str	r6, [r3, #84]	; 0x54
	// PORT B GROUP
	// BIT 	10		9		8		7		6		5		4		3		2		1		0
	//		/CS5	/CS4	/CS3	/CS2	/CS1	GPB5	GPB4	/SRAS	/SCAS	SCLK	SCKE
	//		EXT		NIC		USB		IDE		SMC		NC		NC		Sdram	Sdram	Sdram	Sdram
	//      1, 		1,   	1,   	1,    	1,    	0,       0,     1,    	1,    	1,   	1
	rPDATB = 0x7ff;
 c0008d4:	e2866e7f 	add	r6, r6, #2032	; 0x7f0

	// PORT A GROUP
	// BIT 	9	8	7	6	5	4	3	2	1	0
	// 		A24	A23	A22	A21	A20	A19	A18	A17	A16	A0
	//		0	1	1	1	1	1	1	1	1	1
	rPCONA = 0x1ff;
 c0008d8:	e5835000 	str	r5, [r3]
	// PORT B GROUP
	// BIT 	10		9		8		7		6		5		4		3		2		1		0
	//		/CS5	/CS4	/CS3	/CS2	/CS1	GPB5	GPB4	/SRAS	/SCAS	SCLK	SCKE
	//		EXT		NIC		USB		IDE		SMC		NC		NC		Sdram	Sdram	Sdram	Sdram
	//      1, 		1,   	1,   	1,    	1,    	0,       0,     1,    	1,    	1,   	1
	rPDATB = 0x7ff;
 c0008dc:	e583600c 	str	r6, [r3, #12]
	rPCONB = 0x1cf;			// P9-LED1 P10-LED2
 c0008e0:	e59f60e0 	ldr	r6, [pc, #224]	; c0009c8 <sys_init+0x128>
 c0008e4:	e5836008 	str	r6, [r3, #8]

	//  PC7		6		5		4		3		2		1		0
	//   I		I		I		I		I		I		I		I
	//   NC		NC		NC		NC		IISCLK	IISDI	IISDO	IISLRCK
	//   00		00		00		00		11		11		11		11
	rPDATC = 0xff00;
 c0008e8:	e3a06cff 	mov	r6, #65280	; 0xff00
 c0008ec:	e5836014 	str	r6, [r3, #20]
	rPCONC = 0x0ff0ffff;
 c0008f0:	e59f60d4 	ldr	r6, [pc, #212]	; c0009cc <sys_init+0x12c>
 c0008f4:	e5836010 	str	r6, [r3, #16]
	rPUPC  = 0x30ff;	//PULL UP RESISTOR should be enabled to I/O
 c0008f8:	e59f60d0 	ldr	r6, [pc, #208]	; c0009d0 <sys_init+0x130>
 c0008fc:	e5836018 	str	r6, [r3, #24]
	// PORT D GROUP(I/O OR LCD)
	// BIT7		6		5		4		3		2		1		0
	//	VF		VM		VLINE	VCLK	VD3		VD2		VD1		VD0
	//	00		00		00		00		00		00		00		00
	rPDATD= 0xff;
	rPCOND= 0xaaaa;
 c000900:	e59f60cc 	ldr	r6, [pc, #204]	; c0009d4 <sys_init+0x134>
	// PORT D GROUP
	// PORT D GROUP(I/O OR LCD)
	// BIT7		6		5		4		3		2		1		0
	//	VF		VM		VLINE	VCLK	VD3		VD2		VD1		VD0
	//	00		00		00		00		00		00		00		00
	rPDATD= 0xff;
 c000904:	e3a0e0ff 	mov	lr, #255	; 0xff
 c000908:	e583e020 	str	lr, [r3, #32]
	rPCOND= 0xaaaa;
 c00090c:	e583601c 	str	r6, [r3, #28]
	rPUPD = 0x0;
 c000910:	e5831024 	str	r1, [r3, #36]	; 0x24

	// PORT E GROUP
	// Bit	8		7		6		5		4		3		2		1		0
	//  	CODECLK	LED4	LED5	LED6	LED7	BEEP	RXD0	TXD0	LcdDisp
	//  	10		01		01		01		01		01		10		10		01
	rPDATE	= 0x1ff;
 c000914:	e583502c 	str	r5, [r3, #44]	; 0x2c
	rPCONE	= 0x25529;
 c000918:	e2855a25 	add	r5, r5, #151552	; 0x25000
 c00091c:	e2855fca 	add	r5, r5, #808	; 0x328
 c000920:	e2855002 	add	r5, r5, #2
 c000924:	e5835028 	str	r5, [r3, #40]	; 0x28
	rPUPE	= 0x6;
 c000928:	e3a05006 	mov	r5, #6
 c00092c:	e5835030 	str	r5, [r3, #48]	; 0x30
	// PORT F GROUP
	// Bit8		7		6		5		 4		3		2		1		0
	// IISCLK	IISDI	IISDO	IISLRCK	Input	Input	Input	IICSDA	IICSCL
	// 100		100		100		100		00		00		00		10		10
	rPDATF = 0x0;
	rPCONF = 0x252a;
 c000930:	e59f50a0 	ldr	r5, [pc, #160]	; c0009d8 <sys_init+0x138>
	// BIT7		6		5		4		3		2		1		0
	// 	INT7	INT6	INT5	INT4	INT3	INT2	INT1	INT0
	//	S3		S4		S5		S6		NIC		EXT		IDE		USB
	//	11      11      11      11      11      11      11      11
	rPDATG = 0xff;
	rPCONG = 0xffff;
 c000934:	e59f00a0 	ldr	r0, [pc, #160]	; c0009dc <sys_init+0x13c>

	// PORT F GROUP
	// Bit8		7		6		5		 4		3		2		1		0
	// IISCLK	IISDI	IISDO	IISLRCK	Input	Input	Input	IICSDA	IICSCL
	// 100		100		100		100		00		00		00		10		10
	rPDATF = 0x0;
 c000938:	e5831038 	str	r1, [r3, #56]	; 0x38
	rPCONF = 0x252a;
 c00093c:	e5835034 	str	r5, [r3, #52]	; 0x34
	//	S3		S4		S5		S6		NIC		EXT		IDE		USB
	//	11      11      11      11      11      11      11      11
	rPDATG = 0xff;
	rPCONG = 0xffff;
	rPUPG  = 0x0;		//pull-up portG enabled
	rSPUCR = 0x7;  		//D15-D0 pull-up disable
 c000940:	e3a05007 	mov	r5, #7
	// Bit8		7		6		5		 4		3		2		1		0
	// IISCLK	IISDI	IISDO	IISLRCK	Input	Input	Input	IICSDA	IICSCL
	// 100		100		100		100		00		00		00		10		10
	rPDATF = 0x0;
	rPCONF = 0x252a;
	rPUPF  = 0x0;
 c000944:	e583103c 	str	r1, [r3, #60]	; 0x3c
	// PORT G GROUP
	// BIT7		6		5		4		3		2		1		0
	// 	INT7	INT6	INT5	INT4	INT3	INT2	INT1	INT0
	//	S3		S4		S5		S6		NIC		EXT		IDE		USB
	//	11      11      11      11      11      11      11      11
	rPDATG = 0xff;
 c000948:	e583e044 	str	lr, [r3, #68]	; 0x44
	rPCONG = 0xffff;
 c00094c:	e5830040 	str	r0, [r3, #64]	; 0x40
	rPUPG  = 0x0;		//pull-up portG enabled
 c000950:	e5831048 	str	r1, [r3, #72]	; 0x48
	rSPUCR = 0x7;  		//D15-D0 pull-up disable
 c000954:	e583504c 	str	r5, [r3, #76]	; 0x4c

	/* Non Cache area */
	rNCACHBE0 = ((Non_Cache_End>>12)<<16) | (Non_Cache_Start>>12);
 c000958:	e59f5080 	ldr	r5, [pc, #128]	; c0009e0 <sys_init+0x140>
 c00095c:	e3a0e507 	mov	lr, #29360128	; 0x1c00000
 c000960:	e58e5004 	str	r5, [lr, #4]
	if (time == 0)
	{
		time = 200;
		adjust = 1;
		delayLoopCount = 400;
		rWTCON = ((MCLK/1000000 - 1)<<8) | (2<<3);	// 1M/64,Watch-dog,nRESET,interrupt disable//
 c000964:	e59f2078 	ldr	r2, [pc, #120]	; c0009e4 <sys_init+0x144>
	mallocPt = pt;
}

//--------------------------------INIT---------------------------------//
void sys_init()// Interrupt & Port
{
 c000968:	e24cb004 	sub	fp, ip, #4
		adjust = 1;
		delayLoopCount = 400;
		rWTCON = ((MCLK/1000000 - 1)<<8) | (2<<3);	// 1M/64,Watch-dog,nRESET,interrupt disable//
		rWTDAT = 0xffff;
		rWTCNT = 0xffff;
		rWTCON = ((MCLK/1000000 - 1)<<8)|(2<<3)|(1<<5); // 1M/64,Watch-dog enable,nRESET,interrupt disable //
 c00096c:	e59fe074 	ldr	lr, [pc, #116]	; c0009e8 <sys_init+0x148>
	if (time == 0)
	{
		time = 200;
		adjust = 1;
		delayLoopCount = 400;
		rWTCON = ((MCLK/1000000 - 1)<<8) | (2<<3);	// 1M/64,Watch-dog,nRESET,interrupt disable//
 c000970:	e59fc074 	ldr	ip, [pc, #116]	; c0009ec <sys_init+0x14c>

	/* Non Cache area */
	rNCACHBE0 = ((Non_Cache_End>>12)<<16) | (Non_Cache_Start>>12);

	/* Low level default */
	rEXTINT = 0x0;
 c000974:	e5831050 	str	r1, [r3, #80]	; 0x50
	if (time == 0)
	{
		time = 200;
		adjust = 1;
		delayLoopCount = 400;
		rWTCON = ((MCLK/1000000 - 1)<<8) | (2<<3);	// 1M/64,Watch-dog,nRESET,interrupt disable//
 c000978:	e582c000 	str	ip, [r2]
		rWTDAT = 0xffff;
 c00097c:	e5820004 	str	r0, [r2, #4]
		rWTCNT = 0xffff;
 c000980:	e5820008 	str	r0, [r2, #8]
		rWTCON = ((MCLK/1000000 - 1)<<8)|(2<<3)|(1<<5); // 1M/64,Watch-dog enable,nRESET,interrupt disable //
 c000984:	e582e000 	str	lr, [r2]
	}
	for (; time>0; time--)
		for (i = 0; i < delayLoopCount; i++);
	if (adjust == 1)
	{
		rWTCON = ((MCLK/1000000 - 1)<<8)|(2<<3);
 c000988:	e582c000 	str	ip, [r2]
		i = 0xffff - rWTCNT;   //  1count/16us?????????//
 c00098c:	e592c008 	ldr	ip, [r2, #8]
 c000990:	e26c0cff 	rsb	r0, ip, #65280	; 0xff00
 c000994:	e28020ff 	add	r2, r0, #255	; 0xff
		delayLoopCount = 8000000/(i*64);	//400*100/(i*64/200)   //
 c000998:	e1a01302 	lsl	r1, r2, #6
 c00099c:	e59f004c 	ldr	r0, [pc, #76]	; c0009f0 <sys_init+0x150>
 c0009a0:	eb000950 	bl	c002ee8 <__aeabi_idiv>
 c0009a4:	e59f1048 	ldr	r1, [pc, #72]	; c0009f4 <sys_init+0x154>
	rINTCON = 0x1;
	rI_ISPC = 0xffffffff;			// clear all interrupt pend
	rEXTINTPND = 0xf;				  // clear EXTINTPND reg
	Port_Init();					    // Initial 44B0X's I/O port
	Delay(0);						      // delay time				
	rINTMSK = ~(BIT_GLOBAL);  //enable interrupt mask vector
 c0009a8:	e3e03301 	mvn	r3, #67108864	; 0x4000000
		for (i = 0; i < delayLoopCount; i++);
	if (adjust == 1)
	{
		rWTCON = ((MCLK/1000000 - 1)<<8)|(2<<3);
		i = 0xffff - rWTCNT;   //  1count/16us?????????//
		delayLoopCount = 8000000/(i*64);	//400*100/(i*64/200)   //
 c0009ac:	e5810000 	str	r0, [r1]
	rINTCON = 0x1;
	rI_ISPC = 0xffffffff;			// clear all interrupt pend
	rEXTINTPND = 0xf;				  // clear EXTINTPND reg
	Port_Init();					    // Initial 44B0X's I/O port
	Delay(0);						      // delay time				
	rINTMSK = ~(BIT_GLOBAL);  //enable interrupt mask vector
 c0009b0:	e584300c 	str	r3, [r4, #12]
}
 c0009b4:	e24bd01c 	sub	sp, fp, #28
 c0009b8:	e89d6878 	ldm	sp, {r3, r4, r5, r6, fp, sp, lr}
 c0009bc:	e12fff1e 	bx	lr
 c0009c0:	01d20000 	.word	0x01d20000
 c0009c4:	000001ff 	.word	0x000001ff
 c0009c8:	000001cf 	.word	0x000001cf
 c0009cc:	0ff0ffff 	.word	0x0ff0ffff
 c0009d0:	000030ff 	.word	0x000030ff
 c0009d4:	0000aaaa 	.word	0x0000aaaa
 c0009d8:	0000252a 	.word	0x0000252a
 c0009dc:	0000ffff 	.word	0x0000ffff
 c0009e0:	c0002000 	.word	0xc0002000
 c0009e4:	01d30000 	.word	0x01d30000
 c0009e8:	00003f30 	.word	0x00003f30
 c0009ec:	00003f10 	.word	0x00003f10
 c0009f0:	007a1200 	.word	0x007a1200
 c0009f4:	0c00313c 	.word	0x0c00313c

0c0009f8 <D8Led_init>:
/*--- cdigo de las funciones ---*/
void D8Led_init(void)
{
	/* Estado inicial del display con todos los segmentos iluminados
	   (buscar en los ficheros de cabecera la direccion implicada) */
	LED8ADDR = (unsigned char) cero;
 c0009f8:	e3a02012 	mov	r2, #18
 c0009fc:	e3a03785 	mov	r3, #34865152	; 0x2140000
 c000a00:	e5c32000 	strb	r2, [r3]
}
 c000a04:	e12fff1e 	bx	lr

0c000a08 <D8Led_symbol>:

void D8Led_symbol(int value)
{
	/* muestra el Symbol[value] en el display (analogo al caso anterior) */
	if ((value >= 0) && (value < size_8led)) {
 c000a08:	e3500010 	cmp	r0, #16
		LED8ADDR = (unsigned char) Symbol[value];
 c000a0c:	959f300c 	ldrls	r3, [pc, #12]	; c000a20 <D8Led_symbol+0x18>
 c000a10:	97d32100 	ldrbls	r2, [r3, r0, lsl #2]
 c000a14:	93a03785 	movls	r3, #34865152	; 0x2140000
 c000a18:	95c32000 	strbls	r2, [r3]
 c000a1c:	e12fff1e 	bx	lr
 c000a20:	0c003148 	.word	0x0c003148

0c000a24 <Eint4567_ISR>:
 * https://gcc.gnu.org/onlinedocs/gcc/ARM-Function-Attributes.html */
void Eint4567_ISR(void) __attribute__((interrupt("IRQ")));

/*--- codigo de funciones ---*/
void Eint4567_ISR(void)
{
 c000a24:	e52dc004 	push	{ip}		; (str ip, [sp, #-4]!)
 c000a28:	e1a0c00d 	mov	ip, sp
 c000a2c:	e92dd80f 	push	{r0, r1, r2, r3, fp, ip, lr, pc}
	/* Identificar la interrupcion (hay dos pulsadores)*/
	int which_int = rEXTINTPND;
 c000a30:	e59f3078 	ldr	r3, [pc, #120]	; c000ab0 <Eint4567_ISR+0x8c>
 c000a34:	e5933054 	ldr	r3, [r3, #84]	; 0x54
	switch (which_int)
 c000a38:	e3530004 	cmp	r3, #4
 * https://gcc.gnu.org/onlinedocs/gcc/ARM-Function-Attributes.html */
void Eint4567_ISR(void) __attribute__((interrupt("IRQ")));

/*--- codigo de funciones ---*/
void Eint4567_ISR(void)
{
 c000a3c:	e24cb004 	sub	fp, ip, #4
	/* Identificar la interrupcion (hay dos pulsadores)*/
	int which_int = rEXTINTPND;
	switch (which_int)
 c000a40:	0a000010 	beq	c000a88 <Eint4567_ISR+0x64>
 c000a44:	e3530008 	cmp	r3, #8
 c000a48:	0a000013 	beq	c000a9c <Eint4567_ISR+0x78>
 c000a4c:	e59f0060 	ldr	r0, [pc, #96]	; c000ab4 <Eint4567_ISR+0x90>
 c000a50:	e5900000 	ldr	r0, [r0]
			break;
		default:
			break;
	}
	// }
	D8Led_symbol(int_count & 0x000f); // sacamos el valor por pantalla (mdulo 16)
 c000a54:	e200000f 	and	r0, r0, #15
 c000a58:	ebffffea 	bl	c000a08 <D8Led_symbol>

	/* Finalizar ISR */
	rEXTINTPND = 0xf;				// borra los bits en EXTINTPND
 c000a5c:	e59fc04c 	ldr	ip, [pc, #76]	; c000ab0 <Eint4567_ISR+0x8c>
 c000a60:	e3a0200f 	mov	r2, #15
 c000a64:	e58c2054 	str	r2, [ip, #84]	; 0x54
	rI_ISPC   |= BIT_EINT4567;		// borra el bit pendiente en INTPND
 c000a68:	e3a0361e 	mov	r3, #31457280	; 0x1e00000
 c000a6c:	e5931024 	ldr	r1, [r3, #36]	; 0x24
 c000a70:	e3810602 	orr	r0, r1, #2097152	; 0x200000
 c000a74:	e5830024 	str	r0, [r3, #36]	; 0x24
}
 c000a78:	e24bd01c 	sub	sp, fp, #28
 c000a7c:	e89d680f 	ldm	sp, {r0, r1, r2, r3, fp, sp, lr}
 c000a80:	e49dc004 	pop	{ip}		; (ldr ip, [sp], #4)
 c000a84:	e25ef004 	subs	pc, lr, #4
	/* Identificar la interrupcion (hay dos pulsadores)*/
	int which_int = rEXTINTPND;
	switch (which_int)
	{
		case 4:
			int_count++; // incrementamos el contador
 c000a88:	e59f1024 	ldr	r1, [pc, #36]	; c000ab4 <Eint4567_ISR+0x90>
 c000a8c:	e5912000 	ldr	r2, [r1]
 c000a90:	e2820001 	add	r0, r2, #1
 c000a94:	e5810000 	str	r0, [r1]
			break;
 c000a98:	eaffffed 	b	c000a54 <Eint4567_ISR+0x30>
		case 8:
			int_count--; // decrementamos el contador
 c000a9c:	e59fc010 	ldr	ip, [pc, #16]	; c000ab4 <Eint4567_ISR+0x90>
 c000aa0:	e59ce000 	ldr	lr, [ip]
 c000aa4:	e24e0001 	sub	r0, lr, #1
 c000aa8:	e58c0000 	str	r0, [ip]
			break;
 c000aac:	eaffffe8 	b	c000a54 <Eint4567_ISR+0x30>
 c000ab0:	01d20000 	.word	0x01d20000
 c000ab4:	0c0031ec 	.word	0x0c0031ec

0c000ab8 <Eint4567_init>:

void Eint4567_init(void)
{
	/* Configuracion del controlador de interrupciones. Estos registros estn definidos en 44b.h */
	rI_ISPC    = 0x3ffffff;	// Borra INTPND escribiendo 1s en I_ISPC
	rEXTINTPND = 0xf;       // Borra EXTINTPND escribiendo 1s en el propio registro
 c000ab8:	e59f2068 	ldr	r2, [pc, #104]	; c000b28 <Eint4567_init+0x70>
}

void Eint4567_init(void)
{
	/* Configuracion del controlador de interrupciones. Estos registros estn definidos en 44b.h */
	rI_ISPC    = 0x3ffffff;	// Borra INTPND escribiendo 1s en I_ISPC
 c000abc:	e3a0361e 	mov	r3, #31457280	; 0x1e00000
 c000ac0:	e3e0c33f 	mvn	ip, #-67108864	; 0xfc000000
 c000ac4:	e583c024 	str	ip, [r3, #36]	; 0x24
	rEXTINTPND = 0xf;       // Borra EXTINTPND escribiendo 1s en el propio registro
 c000ac8:	e3a0000f 	mov	r0, #15
	rINTMOD    = 0x0;		// Configura las linas como de tipo IRQ
 c000acc:	e3a01000 	mov	r1, #0
	rINTCON    = 0x1;	    // Habilita int. vectorizadas y la linea IRQ (FIQ no)
 c000ad0:	e3a0c001 	mov	ip, #1

void Eint4567_init(void)
{
	/* Configuracion del controlador de interrupciones. Estos registros estn definidos en 44b.h */
	rI_ISPC    = 0x3ffffff;	// Borra INTPND escribiendo 1s en I_ISPC
	rEXTINTPND = 0xf;       // Borra EXTINTPND escribiendo 1s en el propio registro
 c000ad4:	e5820054 	str	r0, [r2, #84]	; 0x54
	rINTMOD    = 0x0;		// Configura las linas como de tipo IRQ
 c000ad8:	e5831008 	str	r1, [r3, #8]
	rINTCON    = 0x1;	    // Habilita int. vectorizadas y la linea IRQ (FIQ no)
 c000adc:	e583c000 	str	ip, [r3]
	rINTMSK    &= ~(BIT_EINT4567); // habilitamos interrupcion linea eint4567 en vector de mascaras
 c000ae0:	e593c00c 	ldr	ip, [r3, #12]
 c000ae4:	e3ccc602 	bic	ip, ip, #2097152	; 0x200000
 c000ae8:	e583c00c 	str	ip, [r3, #12]

	/* Establece la rutina de servicio para Eint4567 */
	pISR_EINT4567 = (int) Eint4567_ISR;

	/* Configuracion del puerto G */
	rPCONG  = 0xffff;        		// Establece la funcion de los pines (EINT0-7)
 c000aec:	e59fc038 	ldr	ip, [pc, #56]	; c000b2c <Eint4567_init+0x74>
 c000af0:	e582c040 	str	ip, [r2, #64]	; 0x40
	rPUPG   = 0x0;                  // Habilita el "pull up" del puerto
 c000af4:	e5821048 	str	r1, [r2, #72]	; 0x48
	rEXTINT = rEXTINT | 0x22222222;   // Configura las lineas de int. como de flanco de bajada
 c000af8:	e59f1030 	ldr	r1, [pc, #48]	; c000b30 <Eint4567_init+0x78>
 c000afc:	e592c050 	ldr	ip, [r2, #80]	; 0x50
 c000b00:	e18c1001 	orr	r1, ip, r1
 c000b04:	e5821050 	str	r1, [r2, #80]	; 0x50

	/* Por precaucion, se vuelven a borrar los bits de INTPND y EXTINTPND */
	rEXTINTPND = 0xf;				// borra los bits en EXTINTPND
 c000b08:	e5820054 	str	r0, [r2, #84]	; 0x54
	rI_ISPC   |= BIT_EINT4567;		// borra el bit pendiente en INTPND
 c000b0c:	e593c024 	ldr	ip, [r3, #36]	; 0x24
	rINTMOD    = 0x0;		// Configura las linas como de tipo IRQ
	rINTCON    = 0x1;	    // Habilita int. vectorizadas y la linea IRQ (FIQ no)
	rINTMSK    &= ~(BIT_EINT4567); // habilitamos interrupcion linea eint4567 en vector de mascaras

	/* Establece la rutina de servicio para Eint4567 */
	pISR_EINT4567 = (int) Eint4567_ISR;
 c000b10:	e59f001c 	ldr	r0, [pc, #28]	; c000b34 <Eint4567_init+0x7c>
 c000b14:	e59f101c 	ldr	r1, [pc, #28]	; c000b38 <Eint4567_init+0x80>
	rPUPG   = 0x0;                  // Habilita el "pull up" del puerto
	rEXTINT = rEXTINT | 0x22222222;   // Configura las lineas de int. como de flanco de bajada

	/* Por precaucion, se vuelven a borrar los bits de INTPND y EXTINTPND */
	rEXTINTPND = 0xf;				// borra los bits en EXTINTPND
	rI_ISPC   |= BIT_EINT4567;		// borra el bit pendiente en INTPND
 c000b18:	e38c2602 	orr	r2, ip, #2097152	; 0x200000
	rINTMOD    = 0x0;		// Configura las linas como de tipo IRQ
	rINTCON    = 0x1;	    // Habilita int. vectorizadas y la linea IRQ (FIQ no)
	rINTMSK    &= ~(BIT_EINT4567); // habilitamos interrupcion linea eint4567 en vector de mascaras

	/* Establece la rutina de servicio para Eint4567 */
	pISR_EINT4567 = (int) Eint4567_ISR;
 c000b1c:	e501008b 	str	r0, [r1, #-139]	; 0xffffff75
	rPUPG   = 0x0;                  // Habilita el "pull up" del puerto
	rEXTINT = rEXTINT | 0x22222222;   // Configura las lineas de int. como de flanco de bajada

	/* Por precaucion, se vuelven a borrar los bits de INTPND y EXTINTPND */
	rEXTINTPND = 0xf;				// borra los bits en EXTINTPND
	rI_ISPC   |= BIT_EINT4567;		// borra el bit pendiente en INTPND
 c000b20:	e5832024 	str	r2, [r3, #36]	; 0x24
}
 c000b24:	e12fff1e 	bx	lr
 c000b28:	01d20000 	.word	0x01d20000
 c000b2c:	0000ffff 	.word	0x0000ffff
 c000b30:	22222222 	.word	0x22222222
 c000b34:	0c000a24 	.word	0x0c000a24
 c000b38:	0c7fffff 	.word	0x0c7fffff

0c000b3c <leds_on>:
void Led_Display(int LedStatus)
{
	led_state = LedStatus;

	if ((LedStatus & 0x01) == 0x01)
		rPDATB = rPDATB & 0x5ff; /* poner a 0 el bit 9 del puerto B */
 c000b3c:	e59f302c 	ldr	r3, [pc, #44]	; c000b70 <leds_on+0x34>
 c000b40:	e59fc02c 	ldr	ip, [pc, #44]	; c000b74 <leds_on+0x38>
 c000b44:	e593100c 	ldr	r1, [r3, #12]
 c000b48:	e001000c 	and	r0, r1, ip
 c000b4c:	e583000c 	str	r0, [r3, #12]
	else
		rPDATB = rPDATB | 0x200; /* poner a 1 el bit 9 del puerto B */

	if ((LedStatus & 0x02) == 0x02)
		rPDATB = rPDATB & 0x3ff; /* poner a 0 el bit 10 del puerto B */
 c000b50:	e593200c 	ldr	r2, [r3, #12]

}

void Led_Display(int LedStatus)
{
	led_state = LedStatus;
 c000b54:	e59f101c 	ldr	r1, [pc, #28]	; c000b78 <leds_on+0x3c>
		rPDATB = rPDATB & 0x5ff; /* poner a 0 el bit 9 del puerto B */
	else
		rPDATB = rPDATB | 0x200; /* poner a 1 el bit 9 del puerto B */

	if ((LedStatus & 0x02) == 0x02)
		rPDATB = rPDATB & 0x3ff; /* poner a 0 el bit 10 del puerto B */
 c000b58:	e1a0cb02 	lsl	ip, r2, #22
 c000b5c:	e1a02b2c 	lsr	r2, ip, #22

}

void Led_Display(int LedStatus)
{
	led_state = LedStatus;
 c000b60:	e3a00003 	mov	r0, #3
 c000b64:	e5810000 	str	r0, [r1]
		rPDATB = rPDATB & 0x5ff; /* poner a 0 el bit 9 del puerto B */
	else
		rPDATB = rPDATB | 0x200; /* poner a 1 el bit 9 del puerto B */

	if ((LedStatus & 0x02) == 0x02)
		rPDATB = rPDATB & 0x3ff; /* poner a 0 el bit 10 del puerto B */
 c000b68:	e583200c 	str	r2, [r3, #12]

/*--- codigo de las funciones pblicas ---*/
void leds_on()
{
	Led_Display(0x3);
}
 c000b6c:	e12fff1e 	bx	lr
 c000b70:	01d20000 	.word	0x01d20000
 c000b74:	000005ff 	.word	0x000005ff
 c000b78:	0c0031f0 	.word	0x0c0031f0

0c000b7c <leds_off>:
	led_state = LedStatus;

	if ((LedStatus & 0x01) == 0x01)
		rPDATB = rPDATB & 0x5ff; /* poner a 0 el bit 9 del puerto B */
	else
		rPDATB = rPDATB | 0x200; /* poner a 1 el bit 9 del puerto B */
 c000b7c:	e59f3024 	ldr	r3, [pc, #36]	; c000ba8 <leds_off+0x2c>
 c000b80:	e593000c 	ldr	r0, [r3, #12]
 c000b84:	e3802c02 	orr	r2, r0, #512	; 0x200
 c000b88:	e583200c 	str	r2, [r3, #12]

	if ((LedStatus & 0x02) == 0x02)
		rPDATB = rPDATB & 0x3ff; /* poner a 0 el bit 10 del puerto B */
	else
		rPDATB = rPDATB | 0x400; /* poner a 1 el bit 10 del puerto B */
 c000b8c:	e593c00c 	ldr	ip, [r3, #12]

}

void Led_Display(int LedStatus)
{
	led_state = LedStatus;
 c000b90:	e59f1014 	ldr	r1, [pc, #20]	; c000bac <leds_off+0x30>
		rPDATB = rPDATB | 0x200; /* poner a 1 el bit 9 del puerto B */

	if ((LedStatus & 0x02) == 0x02)
		rPDATB = rPDATB & 0x3ff; /* poner a 0 el bit 10 del puerto B */
	else
		rPDATB = rPDATB | 0x400; /* poner a 1 el bit 10 del puerto B */
 c000b94:	e38c2b01 	orr	r2, ip, #1024	; 0x400

}

void Led_Display(int LedStatus)
{
	led_state = LedStatus;
 c000b98:	e3a00000 	mov	r0, #0
 c000b9c:	e5810000 	str	r0, [r1]
		rPDATB = rPDATB | 0x200; /* poner a 1 el bit 9 del puerto B */

	if ((LedStatus & 0x02) == 0x02)
		rPDATB = rPDATB & 0x3ff; /* poner a 0 el bit 10 del puerto B */
	else
		rPDATB = rPDATB | 0x400; /* poner a 1 el bit 10 del puerto B */
 c000ba0:	e583200c 	str	r2, [r3, #12]
}

void leds_off()
{
	Led_Display(0x0);
}
 c000ba4:	e12fff1e 	bx	lr
 c000ba8:	01d20000 	.word	0x01d20000
 c000bac:	0c0031f0 	.word	0x0c0031f0

0c000bb0 <led1_on>:
void Led_Display(int LedStatus)
{
	led_state = LedStatus;

	if ((LedStatus & 0x01) == 0x01)
		rPDATB = rPDATB & 0x5ff; /* poner a 0 el bit 9 del puerto B */
 c000bb0:	e59f3038 	ldr	r3, [pc, #56]	; c000bf0 <led1_on+0x40>
	Led_Display(0x0);
}

void led1_on()
{
	led_state = led_state | 0x1;
 c000bb4:	e59f1038 	ldr	r1, [pc, #56]	; c000bf4 <led1_on+0x44>
void Led_Display(int LedStatus)
{
	led_state = LedStatus;

	if ((LedStatus & 0x01) == 0x01)
		rPDATB = rPDATB & 0x5ff; /* poner a 0 el bit 9 del puerto B */
 c000bb8:	e593c00c 	ldr	ip, [r3, #12]
	Led_Display(0x0);
}

void led1_on()
{
	led_state = led_state | 0x1;
 c000bbc:	e5910000 	ldr	r0, [r1]
void Led_Display(int LedStatus)
{
	led_state = LedStatus;

	if ((LedStatus & 0x01) == 0x01)
		rPDATB = rPDATB & 0x5ff; /* poner a 0 el bit 9 del puerto B */
 c000bc0:	e59f2030 	ldr	r2, [pc, #48]	; c000bf8 <led1_on+0x48>
	Led_Display(0x0);
}

void led1_on()
{
	led_state = led_state | 0x1;
 c000bc4:	e3800001 	orr	r0, r0, #1
void Led_Display(int LedStatus)
{
	led_state = LedStatus;

	if ((LedStatus & 0x01) == 0x01)
		rPDATB = rPDATB & 0x5ff; /* poner a 0 el bit 9 del puerto B */
 c000bc8:	e00cc002 	and	ip, ip, r2
	Led_Display(0x0);
}

void led1_on()
{
	led_state = led_state | 0x1;
 c000bcc:	e5810000 	str	r0, [r1]
void Led_Display(int LedStatus)
{
	led_state = LedStatus;

	if ((LedStatus & 0x01) == 0x01)
		rPDATB = rPDATB & 0x5ff; /* poner a 0 el bit 9 del puerto B */
 c000bd0:	e583c00c 	str	ip, [r3, #12]
	else
		rPDATB = rPDATB | 0x200; /* poner a 1 el bit 9 del puerto B */

	if ((LedStatus & 0x02) == 0x02)
		rPDATB = rPDATB & 0x3ff; /* poner a 0 el bit 10 del puerto B */
 c000bd4:	e593200c 	ldr	r2, [r3, #12]
	if ((LedStatus & 0x01) == 0x01)
		rPDATB = rPDATB & 0x5ff; /* poner a 0 el bit 9 del puerto B */
	else
		rPDATB = rPDATB | 0x200; /* poner a 1 el bit 9 del puerto B */

	if ((LedStatus & 0x02) == 0x02)
 c000bd8:	e3100002 	tst	r0, #2
		rPDATB = rPDATB & 0x3ff; /* poner a 0 el bit 10 del puerto B */
 c000bdc:	11a02b02 	lslne	r2, r2, #22
 c000be0:	11a02b22 	lsrne	r2, r2, #22
	else
		rPDATB = rPDATB | 0x400; /* poner a 1 el bit 10 del puerto B */
 c000be4:	03822b01 	orreq	r2, r2, #1024	; 0x400
 c000be8:	e583200c 	str	r2, [r3, #12]
 c000bec:	e12fff1e 	bx	lr
 c000bf0:	01d20000 	.word	0x01d20000
 c000bf4:	0c0031f0 	.word	0x0c0031f0
 c000bf8:	000005ff 	.word	0x000005ff

0c000bfc <led1_off>:
	led_state = LedStatus;

	if ((LedStatus & 0x01) == 0x01)
		rPDATB = rPDATB & 0x5ff; /* poner a 0 el bit 9 del puerto B */
	else
		rPDATB = rPDATB | 0x200; /* poner a 1 el bit 9 del puerto B */
 c000bfc:	e59f3034 	ldr	r3, [pc, #52]	; c000c38 <led1_off+0x3c>
	Led_Display(led_state);
}

void led1_off()
{
	led_state = led_state & 0xfe;
 c000c00:	e59f2034 	ldr	r2, [pc, #52]	; c000c3c <led1_off+0x40>
	led_state = LedStatus;

	if ((LedStatus & 0x01) == 0x01)
		rPDATB = rPDATB & 0x5ff; /* poner a 0 el bit 9 del puerto B */
	else
		rPDATB = rPDATB | 0x200; /* poner a 1 el bit 9 del puerto B */
 c000c04:	e593000c 	ldr	r0, [r3, #12]
	Led_Display(led_state);
}

void led1_off()
{
	led_state = led_state & 0xfe;
 c000c08:	e5921000 	ldr	r1, [r2]
	led_state = LedStatus;

	if ((LedStatus & 0x01) == 0x01)
		rPDATB = rPDATB & 0x5ff; /* poner a 0 el bit 9 del puerto B */
	else
		rPDATB = rPDATB | 0x200; /* poner a 1 el bit 9 del puerto B */
 c000c0c:	e3800c02 	orr	r0, r0, #512	; 0x200
	Led_Display(led_state);
}

void led1_off()
{
	led_state = led_state & 0xfe;
 c000c10:	e201c0fe 	and	ip, r1, #254	; 0xfe
 c000c14:	e582c000 	str	ip, [r2]
	led_state = LedStatus;

	if ((LedStatus & 0x01) == 0x01)
		rPDATB = rPDATB & 0x5ff; /* poner a 0 el bit 9 del puerto B */
	else
		rPDATB = rPDATB | 0x200; /* poner a 1 el bit 9 del puerto B */
 c000c18:	e583000c 	str	r0, [r3, #12]

	if ((LedStatus & 0x02) == 0x02)
		rPDATB = rPDATB & 0x3ff; /* poner a 0 el bit 10 del puerto B */
 c000c1c:	e593200c 	ldr	r2, [r3, #12]
	if ((LedStatus & 0x01) == 0x01)
		rPDATB = rPDATB & 0x5ff; /* poner a 0 el bit 9 del puerto B */
	else
		rPDATB = rPDATB | 0x200; /* poner a 1 el bit 9 del puerto B */

	if ((LedStatus & 0x02) == 0x02)
 c000c20:	e3110002 	tst	r1, #2
		rPDATB = rPDATB & 0x3ff; /* poner a 0 el bit 10 del puerto B */
 c000c24:	11a02b02 	lslne	r2, r2, #22
 c000c28:	11a02b22 	lsrne	r2, r2, #22
	else
		rPDATB = rPDATB | 0x400; /* poner a 1 el bit 10 del puerto B */
 c000c2c:	03822b01 	orreq	r2, r2, #1024	; 0x400
 c000c30:	e583200c 	str	r2, [r3, #12]
 c000c34:	e12fff1e 	bx	lr
 c000c38:	01d20000 	.word	0x01d20000
 c000c3c:	0c0031f0 	.word	0x0c0031f0

0c000c40 <led2_on>:
	Led_Display(led_state);
}

void led2_on()
{
	led_state = led_state | 0x2;
 c000c40:	e59f3048 	ldr	r3, [pc, #72]	; c000c90 <led2_on+0x50>
 c000c44:	e5932000 	ldr	r2, [r3]
 c000c48:	e382c002 	orr	ip, r2, #2

void Led_Display(int LedStatus)
{
	led_state = LedStatus;

	if ((LedStatus & 0x01) == 0x01)
 c000c4c:	e31c0001 	tst	ip, #1
	Led_Display(led_state);
}

void led2_on()
{
	led_state = led_state | 0x2;
 c000c50:	e583c000 	str	ip, [r3]
	led_state = LedStatus;

	if ((LedStatus & 0x01) == 0x01)
		rPDATB = rPDATB & 0x5ff; /* poner a 0 el bit 9 del puerto B */
	else
		rPDATB = rPDATB | 0x200; /* poner a 1 el bit 9 del puerto B */
 c000c54:	059f3038 	ldreq	r3, [pc, #56]	; c000c94 <led2_on+0x54>
void Led_Display(int LedStatus)
{
	led_state = LedStatus;

	if ((LedStatus & 0x01) == 0x01)
		rPDATB = rPDATB & 0x5ff; /* poner a 0 el bit 9 del puerto B */
 c000c58:	159fc034 	ldrne	ip, [pc, #52]	; c000c94 <led2_on+0x54>
	else
		rPDATB = rPDATB | 0x200; /* poner a 1 el bit 9 del puerto B */
 c000c5c:	0593c00c 	ldreq	ip, [r3, #12]
void Led_Display(int LedStatus)
{
	led_state = LedStatus;

	if ((LedStatus & 0x01) == 0x01)
		rPDATB = rPDATB & 0x5ff; /* poner a 0 el bit 9 del puerto B */
 c000c60:	159c100c 	ldrne	r1, [ip, #12]
 c000c64:	159f302c 	ldrne	r3, [pc, #44]	; c000c98 <led2_on+0x58>
	else
		rPDATB = rPDATB | 0x200; /* poner a 1 el bit 9 del puerto B */
 c000c68:	038ccc02 	orreq	ip, ip, #512	; 0x200
void Led_Display(int LedStatus)
{
	led_state = LedStatus;

	if ((LedStatus & 0x01) == 0x01)
		rPDATB = rPDATB & 0x5ff; /* poner a 0 el bit 9 del puerto B */
 c000c6c:	10013003 	andne	r3, r1, r3
 c000c70:	158c300c 	strne	r3, [ip, #12]
	else
		rPDATB = rPDATB | 0x200; /* poner a 1 el bit 9 del puerto B */
 c000c74:	0583c00c 	streq	ip, [r3, #12]

	if ((LedStatus & 0x02) == 0x02)
		rPDATB = rPDATB & 0x3ff; /* poner a 0 el bit 10 del puerto B */
 c000c78:	e59f3014 	ldr	r3, [pc, #20]	; c000c94 <led2_on+0x54>
 c000c7c:	e593100c 	ldr	r1, [r3, #12]
 c000c80:	e1a00b01 	lsl	r0, r1, #22
 c000c84:	e1a02b20 	lsr	r2, r0, #22
 c000c88:	e583200c 	str	r2, [r3, #12]

void led2_on()
{
	led_state = led_state | 0x2;
	Led_Display(led_state);
}
 c000c8c:	e12fff1e 	bx	lr
 c000c90:	0c0031f0 	.word	0x0c0031f0
 c000c94:	01d20000 	.word	0x01d20000
 c000c98:	000005ff 	.word	0x000005ff

0c000c9c <led2_off>:

void led2_off()
{
	led_state = led_state & 0xfd;
 c000c9c:	e59f2044 	ldr	r2, [pc, #68]	; c000ce8 <led2_off+0x4c>
 c000ca0:	e592c000 	ldr	ip, [r2]

void Led_Display(int LedStatus)
{
	led_state = LedStatus;

	if ((LedStatus & 0x01) == 0x01)
 c000ca4:	e31c0001 	tst	ip, #1
	Led_Display(led_state);
}

void led2_off()
{
	led_state = led_state & 0xfd;
 c000ca8:	e20c10fd 	and	r1, ip, #253	; 0xfd
 c000cac:	e5821000 	str	r1, [r2]
void Led_Display(int LedStatus)
{
	led_state = LedStatus;

	if ((LedStatus & 0x01) == 0x01)
		rPDATB = rPDATB & 0x5ff; /* poner a 0 el bit 9 del puerto B */
 c000cb0:	159fc034 	ldrne	ip, [pc, #52]	; c000cec <led2_off+0x50>
	else
		rPDATB = rPDATB | 0x200; /* poner a 1 el bit 9 del puerto B */
 c000cb4:	059f2030 	ldreq	r2, [pc, #48]	; c000cec <led2_off+0x50>
void Led_Display(int LedStatus)
{
	led_state = LedStatus;

	if ((LedStatus & 0x01) == 0x01)
		rPDATB = rPDATB & 0x5ff; /* poner a 0 el bit 9 del puerto B */
 c000cb8:	159c100c 	ldrne	r1, [ip, #12]
	else
		rPDATB = rPDATB | 0x200; /* poner a 1 el bit 9 del puerto B */
 c000cbc:	0592c00c 	ldreq	ip, [r2, #12]
void Led_Display(int LedStatus)
{
	led_state = LedStatus;

	if ((LedStatus & 0x01) == 0x01)
		rPDATB = rPDATB & 0x5ff; /* poner a 0 el bit 9 del puerto B */
 c000cc0:	159f2028 	ldrne	r2, [pc, #40]	; c000cf0 <led2_off+0x54>
	else
		rPDATB = rPDATB | 0x200; /* poner a 1 el bit 9 del puerto B */
 c000cc4:	038ccc02 	orreq	ip, ip, #512	; 0x200
void Led_Display(int LedStatus)
{
	led_state = LedStatus;

	if ((LedStatus & 0x01) == 0x01)
		rPDATB = rPDATB & 0x5ff; /* poner a 0 el bit 9 del puerto B */
 c000cc8:	10012002 	andne	r2, r1, r2
 c000ccc:	158c200c 	strne	r2, [ip, #12]
	else
		rPDATB = rPDATB | 0x200; /* poner a 1 el bit 9 del puerto B */
 c000cd0:	0582c00c 	streq	ip, [r2, #12]

	if ((LedStatus & 0x02) == 0x02)
		rPDATB = rPDATB & 0x3ff; /* poner a 0 el bit 10 del puerto B */
	else
		rPDATB = rPDATB | 0x400; /* poner a 1 el bit 10 del puerto B */
 c000cd4:	e59f3010 	ldr	r3, [pc, #16]	; c000cec <led2_off+0x50>
 c000cd8:	e593000c 	ldr	r0, [r3, #12]
 c000cdc:	e3802b01 	orr	r2, r0, #1024	; 0x400
 c000ce0:	e583200c 	str	r2, [r3, #12]

void led2_off()
{
	led_state = led_state & 0xfd;
	Led_Display(led_state);
}
 c000ce4:	e12fff1e 	bx	lr
 c000ce8:	0c0031f0 	.word	0x0c0031f0
 c000cec:	01d20000 	.word	0x01d20000
 c000cf0:	000005ff 	.word	0x000005ff

0c000cf4 <leds_switch>:

void leds_switch()
{
	led_state ^= 0x03;
 c000cf4:	e59f2050 	ldr	r2, [pc, #80]	; c000d4c <leds_switch+0x58>
 c000cf8:	e5923000 	ldr	r3, [r2]
 c000cfc:	e223c003 	eor	ip, r3, #3

void Led_Display(int LedStatus)
{
	led_state = LedStatus;

	if ((LedStatus & 0x01) == 0x01)
 c000d00:	e31c0001 	tst	ip, #1
	Led_Display(led_state);
}

void leds_switch()
{
	led_state ^= 0x03;
 c000d04:	e582c000 	str	ip, [r2]
void Led_Display(int LedStatus)
{
	led_state = LedStatus;

	if ((LedStatus & 0x01) == 0x01)
		rPDATB = rPDATB & 0x5ff; /* poner a 0 el bit 9 del puerto B */
 c000d08:	159f1040 	ldrne	r1, [pc, #64]	; c000d50 <leds_switch+0x5c>
	else
		rPDATB = rPDATB | 0x200; /* poner a 1 el bit 9 del puerto B */
 c000d0c:	059f203c 	ldreq	r2, [pc, #60]	; c000d50 <leds_switch+0x5c>
void Led_Display(int LedStatus)
{
	led_state = LedStatus;

	if ((LedStatus & 0x01) == 0x01)
		rPDATB = rPDATB & 0x5ff; /* poner a 0 el bit 9 del puerto B */
 c000d10:	1591000c 	ldrne	r0, [r1, #12]
	else
		rPDATB = rPDATB | 0x200; /* poner a 1 el bit 9 del puerto B */
 c000d14:	0592100c 	ldreq	r1, [r2, #12]
void Led_Display(int LedStatus)
{
	led_state = LedStatus;

	if ((LedStatus & 0x01) == 0x01)
		rPDATB = rPDATB & 0x5ff; /* poner a 0 el bit 9 del puerto B */
 c000d18:	159f2034 	ldrne	r2, [pc, #52]	; c000d54 <leds_switch+0x60>
	else
		rPDATB = rPDATB | 0x200; /* poner a 1 el bit 9 del puerto B */
 c000d1c:	03811c02 	orreq	r1, r1, #512	; 0x200
void Led_Display(int LedStatus)
{
	led_state = LedStatus;

	if ((LedStatus & 0x01) == 0x01)
		rPDATB = rPDATB & 0x5ff; /* poner a 0 el bit 9 del puerto B */
 c000d20:	10002002 	andne	r2, r0, r2
 c000d24:	1581200c 	strne	r2, [r1, #12]
	else
		rPDATB = rPDATB | 0x200; /* poner a 1 el bit 9 del puerto B */
 c000d28:	0582100c 	streq	r1, [r2, #12]

	if ((LedStatus & 0x02) == 0x02)
		rPDATB = rPDATB & 0x3ff; /* poner a 0 el bit 10 del puerto B */
 c000d2c:	e59f301c 	ldr	r3, [pc, #28]	; c000d50 <leds_switch+0x5c>
 c000d30:	e593200c 	ldr	r2, [r3, #12]
	if ((LedStatus & 0x01) == 0x01)
		rPDATB = rPDATB & 0x5ff; /* poner a 0 el bit 9 del puerto B */
	else
		rPDATB = rPDATB | 0x200; /* poner a 1 el bit 9 del puerto B */

	if ((LedStatus & 0x02) == 0x02)
 c000d34:	e31c0002 	tst	ip, #2
		rPDATB = rPDATB & 0x3ff; /* poner a 0 el bit 10 del puerto B */
 c000d38:	11a02b02 	lslne	r2, r2, #22
 c000d3c:	11a02b22 	lsrne	r2, r2, #22
	else
		rPDATB = rPDATB | 0x400; /* poner a 1 el bit 10 del puerto B */
 c000d40:	03822b01 	orreq	r2, r2, #1024	; 0x400
 c000d44:	e583200c 	str	r2, [r3, #12]
 c000d48:	e12fff1e 	bx	lr
 c000d4c:	0c0031f0 	.word	0x0c0031f0
 c000d50:	01d20000 	.word	0x01d20000
 c000d54:	000005ff 	.word	0x000005ff

0c000d58 <Led_Display>:

}

void Led_Display(int LedStatus)
{
	led_state = LedStatus;
 c000d58:	e59fc048 	ldr	ip, [pc, #72]	; c000da8 <Led_Display+0x50>

	if ((LedStatus & 0x01) == 0x01)
 c000d5c:	e3100001 	tst	r0, #1

}

void Led_Display(int LedStatus)
{
	led_state = LedStatus;
 c000d60:	e58c0000 	str	r0, [ip]

	if ((LedStatus & 0x01) == 0x01)
		rPDATB = rPDATB & 0x5ff; /* poner a 0 el bit 9 del puerto B */
 c000d64:	159f2040 	ldrne	r2, [pc, #64]	; c000dac <Led_Display+0x54>
	else
		rPDATB = rPDATB | 0x200; /* poner a 1 el bit 9 del puerto B */
 c000d68:	059fc03c 	ldreq	ip, [pc, #60]	; c000dac <Led_Display+0x54>
void Led_Display(int LedStatus)
{
	led_state = LedStatus;

	if ((LedStatus & 0x01) == 0x01)
		rPDATB = rPDATB & 0x5ff; /* poner a 0 el bit 9 del puerto B */
 c000d6c:	1592100c 	ldrne	r1, [r2, #12]
	else
		rPDATB = rPDATB | 0x200; /* poner a 1 el bit 9 del puerto B */
 c000d70:	059c200c 	ldreq	r2, [ip, #12]
void Led_Display(int LedStatus)
{
	led_state = LedStatus;

	if ((LedStatus & 0x01) == 0x01)
		rPDATB = rPDATB & 0x5ff; /* poner a 0 el bit 9 del puerto B */
 c000d74:	159fc034 	ldrne	ip, [pc, #52]	; c000db0 <Led_Display+0x58>
	else
		rPDATB = rPDATB | 0x200; /* poner a 1 el bit 9 del puerto B */
 c000d78:	03822c02 	orreq	r2, r2, #512	; 0x200
void Led_Display(int LedStatus)
{
	led_state = LedStatus;

	if ((LedStatus & 0x01) == 0x01)
		rPDATB = rPDATB & 0x5ff; /* poner a 0 el bit 9 del puerto B */
 c000d7c:	1001c00c 	andne	ip, r1, ip
 c000d80:	1582c00c 	strne	ip, [r2, #12]
	else
		rPDATB = rPDATB | 0x200; /* poner a 1 el bit 9 del puerto B */
 c000d84:	058c200c 	streq	r2, [ip, #12]

	if ((LedStatus & 0x02) == 0x02)
		rPDATB = rPDATB & 0x3ff; /* poner a 0 el bit 10 del puerto B */
 c000d88:	e59f301c 	ldr	r3, [pc, #28]	; c000dac <Led_Display+0x54>
 c000d8c:	e593200c 	ldr	r2, [r3, #12]
	if ((LedStatus & 0x01) == 0x01)
		rPDATB = rPDATB & 0x5ff; /* poner a 0 el bit 9 del puerto B */
	else
		rPDATB = rPDATB | 0x200; /* poner a 1 el bit 9 del puerto B */

	if ((LedStatus & 0x02) == 0x02)
 c000d90:	e3100002 	tst	r0, #2
		rPDATB = rPDATB & 0x3ff; /* poner a 0 el bit 10 del puerto B */
 c000d94:	11a02b02 	lslne	r2, r2, #22
 c000d98:	11a02b22 	lsrne	r2, r2, #22
	else
		rPDATB = rPDATB | 0x400; /* poner a 1 el bit 10 del puerto B */
 c000d9c:	03822b01 	orreq	r2, r2, #1024	; 0x400
 c000da0:	e583200c 	str	r2, [r3, #12]
 c000da4:	e12fff1e 	bx	lr
 c000da8:	0c0031f0 	.word	0x0c0031f0
 c000dac:	01d20000 	.word	0x01d20000
 c000db0:	000005ff 	.word	0x000005ff

0c000db4 <Main>:
/*--- variables globales ---*/


/*--- codigo de funciones ---*/
void Main(void)
{
 c000db4:	e1a0c00d 	mov	ip, sp
 c000db8:	e92dd818 	push	{r3, r4, fp, ip, lr, pc}
	/* Valor inicial de los leds */

	reversi8();

	leds_off();
	led1_on();
 c000dbc:	e59f403c 	ldr	r4, [pc, #60]	; c000e00 <Main+0x4c>
/*--- variables globales ---*/


/*--- codigo de funciones ---*/
void Main(void)
{
 c000dc0:	e24cb004 	sub	fp, ip, #4
	unsigned int prueba;
	/* Inicializa controladores */
	sys_init();         // Inicializacion de la placa, interrupciones y puertos
 c000dc4:	ebfffeb5 	bl	c0008a0 <sys_init>
	//timer_init();	    // Inicializacion del temporizador
	//timer_init();
	timer2_inicializar();
 c000dc8:	eb000800 	bl	c002dd0 <timer2_inicializar>
	timer2_empezar();
 c000dcc:	eb000819 	bl	c002e38 <timer2_empezar>
	Eint4567_init();	// inicializamos los pulsadores. Cada vez que se pulse se ver reflejado en el 8led
 c000dd0:	ebffff38 	bl	c000ab8 <Eint4567_init>
	D8Led_init();       // inicializamos el 8led
 c000dd4:	ebffff07 	bl	c0009f8 <D8Led_init>

	prueba = timer2_parar();

	/* Valor inicial de los leds */

	reversi8();
 c000dd8:	eb00040a 	bl	c001e08 <reversi8>

	leds_off();
 c000ddc:	ebffff66 	bl	c000b7c <leds_off>
	led1_on();
 c000de0:	ebffff72 	bl	c000bb0 <led1_on>
 c000de4:	e5943000 	ldr	r3, [r4]
 c000de8:	e3530001 	cmp	r3, #1
 c000dec:	1a000002 	bne	c000dfc <Main+0x48>
	{
		/* Cambia los leds con cada interrupcion del temporizador */
		if (switch_leds == 1)
		{

			leds_switch();
 c000df0:	ebffffbf 	bl	c000cf4 <leds_switch>
			switch_leds = 0;
 c000df4:	e3a00000 	mov	r0, #0
 c000df8:	e5840000 	str	r0, [r4]
 c000dfc:	eafffffe 	b	c000dfc <Main+0x48>
 c000e00:	0c003240 	.word	0x0c003240

0c000e04 <patron_volteo_arm_arm>:
.equ CASILLA_VACIA, 0

patron_volteo_arm_arm:
.arm

	push {r4-r9,fp,lr}
 c000e04:	e92d4bf0 	push	{r4, r5, r6, r7, r8, r9, fp, lr}
	@ R6 = fp + 12 = COLOR
	@ R7 = Longitud
	@ R8 = POSICION_VALIDA
	@ R9 = CASILLA (ficha)

	ldrsb r4, [sp, #32]	@ r4 = SF
 c000e08:	e1dd42d0 	ldrsb	r4, [sp, #32]
	ldrsb r5, [sp, #36]	@ r5 = SC
 c000e0c:	e1dd52d4 	ldrsb	r5, [sp, #36]	; 0x24
	ldrb r6, [sp, #40]	@ r6 = COLOR
 c000e10:	e5dd6028 	ldrb	r6, [sp, #40]	; 0x28

	ldrb r7, [r1]		@ R7 = Longitud (tambien podriamos usar -> mov r7, #0 ya que la funcion
 c000e14:	e5d17000 	ldrb	r7, [r1]

0c000e18 <while>:
						@ actualizar_tablero siempre invoca a patron_volteo con longitud = 0 y ahorrar un acceso a memoria)

while:
	add r2, r2, r4 		@ r6 = FA = FA + SF
 c000e18:	e0822004 	add	r2, r2, r4
	add r3, r3, r5 		@ r8 = CA = CA + SC
 c000e1c:	e0833005 	add	r3, r3, r5

0c000e20 <if_1>:

	@ FICHA VALIDA
	if_1:
		cmp r2,#DIM			@ f < DIM
 c000e20:	e3520007 	cmp	r2, #7
		bge else_1
 c000e24:	aa00000a 	bge	c000e54 <else_1>

		cmp r2,#0			@ f >= 0
 c000e28:	e3520000 	cmp	r2, #0
		blt else_1
 c000e2c:	ba000008 	blt	c000e54 <else_1>

		cmp r3,#DIM			@ c < DIM
 c000e30:	e3530007 	cmp	r3, #7
		bge else_1
 c000e34:	aa000006 	bge	c000e54 <else_1>

		cmp	r3,#0			@ c >= 0
 c000e38:	e3530000 	cmp	r3, #0
		blt else_1
 c000e3c:	ba000004 	blt	c000e54 <else_1>

		add r9,r3,r2,LSL#3			@ r9 = filas * 2^3 + columnas
 c000e40:	e0839182 	add	r9, r3, r2, lsl #3
		ldrb r9,[r0,r9]				@ r9 = CASILLA (ficha)
 c000e44:	e7d09009 	ldrb	r9, [r0, r9]

		cmp	r9,#CASILLA_VACIA		@ tablero[f][c] != CASILLA_VACIA
 c000e48:	e3590000 	cmp	r9, #0
		movne r8,#1
 c000e4c:	13a08001 	movne	r8, #1
		bne end_f_valida
 c000e50:	1a000001 	bne	c000e5c <end_f_valida>

0c000e54 <else_1>:

	else_1:
		mov r8,#0
 c000e54:	e3a08000 	mov	r8, #0
		mov r9,#CASILLA_VACIA
 c000e58:	e3a09000 	mov	r9, #0

0c000e5c <end_f_valida>:
	@ END_FICHA_VALIDA

end_f_valida:
	cmp r8, #1		@ posicion_valida == 1
 c000e5c:	e3580001 	cmp	r8, #1
	bne if_2
 c000e60:	1a000002 	bne	c000e70 <if_2>

	cmp r9, r6		@ casilla != color
 c000e64:	e1590006 	cmp	r9, r6
	addne r7, r7, #1	@ longitud++
 c000e68:	12877001 	addne	r7, r7, #1
	bne while
 c000e6c:	1affffe9 	bne	c000e18 <while>

0c000e70 <if_2>:

if_2:
	cmp r8, #1		@ posicion_valida == 1
 c000e70:	e3580001 	cmp	r8, #1
	bne else_2
 c000e74:	1a000004 	bne	c000e8c <else_2>

	cmp r9, r6		@ casilla == color
 c000e78:	e1590006 	cmp	r9, r6
	bne else_2
 c000e7c:	1a000002 	bne	c000e8c <else_2>

	cmp r7, #0		@ *longitud >0
 c000e80:	e3570000 	cmp	r7, #0
	movgt r0, #PATRON_ENCONTRADO
 c000e84:	c3a00001 	movgt	r0, #1
	bgt fin
 c000e88:	ca000000 	bgt	c000e90 <fin>

0c000e8c <else_2>:

else_2:
	mov r0, #NO_HAY_PATRON
 c000e8c:	e3a00000 	mov	r0, #0

0c000e90 <fin>:
	
fin:
	strb r7,[r1] @ actualizamos el valor de longitud
 c000e90:	e5c17000 	strb	r7, [r1]

	pop {r4-r9,fp,lr}
 c000e94:	e8bd4bf0 	pop	{r4, r5, r6, r7, r8, r9, fp, lr}
	bx lr
 c000e98:	e12fff1e 	bx	lr

0c000e9c <posicion_valida>:
 c000e9c:	00000000 	.word	0x00000000

0c000ea0 <patron_volteo_arm_c>:
.equ NO_HAY_PATRON, 0

patron_volteo_arm_c:
.arm

	push {r4-r10,fp,lr}
 c000ea0:	e92d4ff0 	push	{r4, r5, r6, r7, r8, r9, sl, fp, lr}
	@ R7 = COLOR
	@ R8 = CA
	@ R9 = @*Longitud
	@ R10 = TABLERO

	mov r9, r1			@ R9 = @*Longitud
 c000ea4:	e1a09001 	mov	r9, r1
	ldrb r4, [r9]		@ R4 = Longitud (tambien podriamos usar -> mov r4, #0 ya que la funcion
 c000ea8:	e5d94000 	ldrb	r4, [r9]
						@ actualizar_tablero siempre invoca a patron_volteo con longitud = 0 y ahorrar un acceso)
	ldr r5, =posicion_valida @ DIR_POS_VAL
 c000eac:	e59f5074 	ldr	r5, [pc, #116]	; c000f28 <fin+0xc>
	ldrb r7, [sp, #44]	@ r7 = COLOR
 c000eb0:	e5dd702c 	ldrb	r7, [sp, #44]	; 0x2c
	mov r6, r2			@ r6 guarda el valor de FA actualizado
 c000eb4:	e1a06002 	mov	r6, r2
	mov r8, r3			@ r8 guarda el valor de CA actualizado
 c000eb8:	e1a08003 	mov	r8, r3
	mov r10, r0			@ r10 = TABLERO
 c000ebc:	e1a0a000 	mov	sl, r0

0c000ec0 <while>:

while:
	ldrsb r1, [sp, #36]	@ r1 = SF
 c000ec0:	e1dd12d4 	ldrsb	r1, [sp, #36]	; 0x24
	add r6, r6, r1 		@ r6 = FA = FA + SF
 c000ec4:	e0866001 	add	r6, r6, r1
	mov r1, r6			@ r1 = FA
 c000ec8:	e1a01006 	mov	r1, r6

	ldrsb r2, [sp, #40]	@ r2 = SC
 c000ecc:	e1dd22d8 	ldrsb	r2, [sp, #40]	; 0x28
	add r8, r8, r2 		@ r8 = CA = CA + SC
 c000ed0:	e0888002 	add	r8, r8, r2
	mov r2, r8			@ r2 = CA
 c000ed4:	e1a02008 	mov	r2, r8

	mov r3,r5			@ r3 = @POSICION_VALIDA
 c000ed8:	e1a03005 	mov	r3, r5

	bl ficha_valida
 c000edc:	eb000154 	bl	c001434 <ficha_valida>

	@ R0 = CASILLA (ficha_valida ha machacado el valor de TABLERO)
	ldrb r1,[r5]	@ r1 = POSICION_VALIDA
 c000ee0:	e5d51000 	ldrb	r1, [r5]

	cmp r1, #1		@ posicion_valida == 1
 c000ee4:	e3510001 	cmp	r1, #1
	bne if
 c000ee8:	1a000003 	bne	c000efc <if>

	cmp r0, r7		@ casilla != color
 c000eec:	e1500007 	cmp	r0, r7
	addne r4, r4, #1	@ longitud++
 c000ef0:	12844001 	addne	r4, r4, #1
	movne r0, r10 	@ hay que actualizar el valor de r0 con el de TABLERO
 c000ef4:	11a0000a 	movne	r0, sl

	bne while
 c000ef8:	1afffff0 	bne	c000ec0 <while>

0c000efc <if>:

if:
	cmp r1, #1		@ posicion_valida == 1
 c000efc:	e3510001 	cmp	r1, #1
	bne else
 c000f00:	1a000004 	bne	c000f18 <else>

	cmp r0, r7		@ casilla == color
 c000f04:	e1500007 	cmp	r0, r7
	bne else
 c000f08:	1a000002 	bne	c000f18 <else>

	cmp r4, #0		@ *longitud >0
 c000f0c:	e3540000 	cmp	r4, #0
	movgt r0, #PATRON_ENCONTRADO
 c000f10:	c3a00001 	movgt	r0, #1
	bgt fin
 c000f14:	ca000000 	bgt	c000f1c <fin>

0c000f18 <else>:

else:
	mov r0, #NO_HAY_PATRON
 c000f18:	e3a00000 	mov	r0, #0

0c000f1c <fin>:
	
fin:
	strb r4,[r9] @ actualizamos el valor de longitud
 c000f1c:	e5c94000 	strb	r4, [r9]

	pop {r4-r10,fp,lr}
 c000f20:	e8bd4ff0 	pop	{r4, r5, r6, r7, r8, r9, sl, fp, lr}
	bx lr
 c000f24:	e12fff1e 	bx	lr
 c000f28:	0c000e9c 	.word	0x0c000e9c

0c000f2c <autoasignar>:

    *ready = 0;  //una vez que pasemos el bucle volvemos a fijar ready a 0;
}

void autoasignar() {
	fila = 2;
 c000f2c:	e59f3018 	ldr	r3, [pc, #24]	; c000f4c <autoasignar+0x20>
 c000f30:	e3a01002 	mov	r1, #2
	columna = 3;
 c000f34:	e3a00003 	mov	r0, #3
	ready = 1;
 c000f38:	e3a02001 	mov	r2, #1

    *ready = 0;  //una vez que pasemos el bucle volvemos a fijar ready a 0;
}

void autoasignar() {
	fila = 2;
 c000f3c:	e5c31000 	strb	r1, [r3]
	columna = 3;
 c000f40:	e5c30001 	strb	r0, [r3, #1]
	ready = 1;
 c000f44:	e5c32002 	strb	r2, [r3, #2]
}
 c000f48:	e12fff1e 	bx	lr
 c000f4c:	0c0031f8 	.word	0x0c0031f8

0c000f50 <actualizar_tablero.clone.0>:
// comprueba si hay que actualizar alguna ficha
// no comprueba que el movimiento realizado sea vlido
// f y c son la fila y columna a analizar
// char vSF[DIM] = {-1,-1, 0, 1, 1, 1, 0,-1};
// char vSC[DIM] = { 0, 1, 1, 1, 0,-1,-1,-1};
int actualizar_tablero(char tablero[][DIM], char f, char c, char color)
 c000f50:	e1a0c00d 	mov	ip, sp
 c000f54:	e92ddff0 	push	{r4, r5, r6, r7, r8, r9, sl, fp, ip, lr, pc}
 c000f58:	e24cb004 	sub	fp, ip, #4
 c000f5c:	e24dd02c 	sub	sp, sp, #44	; 0x2c
{
    char SF, SC; // cantidades a sumar para movernos en la direccin que toque
    int i, flip, patron;
    volatile int tiempo = 0;
 c000f60:	e3a05000 	mov	r5, #0
// comprueba si hay que actualizar alguna ficha
// no comprueba que el movimiento realizado sea vlido
// f y c son la fila y columna a analizar
// char vSF[DIM] = {-1,-1, 0, 1, 1, 1, 0,-1};
// char vSC[DIM] = { 0, 1, 1, 1, 0,-1,-1,-1};
int actualizar_tablero(char tablero[][DIM], char f, char c, char color)
 c000f64:	e50b103c 	str	r1, [fp, #-60]	; 0xffffffc4
 c000f68:	e1a04002 	mov	r4, r2
 c000f6c:	e50b0038 	str	r0, [fp, #-56]	; 0xffffffc8
{
    char SF, SC; // cantidades a sumar para movernos en la direccin que toque
    int i, flip, patron;
    volatile int tiempo = 0;
 c000f70:	e50b5030 	str	r5, [fp, #-48]	; 0xffffffd0

    timer2_inicializar();
 c000f74:	eb000795 	bl	c002dd0 <timer2_inicializar>
    timer2_empezar();
 c000f78:	eb0007ae 	bl	c002e38 <timer2_empezar>
//    printf("%c, %c, %i",f, c, *posicion_valida);
    // ficha = tablero[f][c];
    // no puede accederse a tablero[f][c]
    // ya que algn ndice puede ser negativo

    if ((f < DIM) && (f >= 0) && (c < DIM) && (c >= 0) && (tablero[f][c] != CASILLA_VACIA))
 c000f7c:	e59f0260 	ldr	r0, [pc, #608]	; c0011e4 <actualizar_tablero.clone.0+0x294>
    int i, flip, patron;
    volatile int tiempo = 0;

    timer2_inicializar();
    timer2_empezar();
    for (i = 0; i < DIM; i++) // 0 es Norte, 1 NE, 2 E ...
 c000f80:	e1a0c005 	mov	ip, r5
    {
        SF = vSF[i];
 c000f84:	e59f525c 	ldr	r5, [pc, #604]	; c0011e8 <actualizar_tablero.clone.0+0x298>
        SC = vSC[i];
 c000f88:	e2852008 	add	r2, r5, #8

    timer2_inicializar();
    timer2_empezar();
    for (i = 0; i < DIM; i++) // 0 es Norte, 1 NE, 2 E ...
    {
        SF = vSF[i];
 c000f8c:	e7d5100c 	ldrb	r1, [r5, ip]
        SC = vSC[i];
 c000f90:	e7d2200c 	ldrb	r2, [r2, ip]
int patron_volteo(char tablero[][DIM], int *longitud, char FA, char CA, char SF, char SC, char color)
{
	int posicion_valida; // indica si la posicin es valida y contiene una ficha de algn jugador
	char casilla;   // casilla es la casilla que se lee del tablerotes();

	FA = FA + SF;
 c000f94:	e24b303c 	sub	r3, fp, #60	; 0x3c
 c000f98:	e8930108 	ldm	r3, {r3, r8}
 c000f9c:	e0887001 	add	r7, r8, r1
	CA = CA + SC;
 c000fa0:	e083e002 	add	lr, r3, r2
int patron_volteo(char tablero[][DIM], int *longitud, char FA, char CA, char SF, char SC, char color)
{
	int posicion_valida; // indica si la posicin es valida y contiene una ficha de algn jugador
	char casilla;   // casilla es la casilla que se lee del tablerotes();

	FA = FA + SF;
 c000fa4:	e20750ff 	and	r5, r7, #255	; 0xff
	CA = CA + SC;
 c000fa8:	e20ee0ff 	and	lr, lr, #255	; 0xff
//    printf("%c, %c, %i",f, c, *posicion_valida);
    // ficha = tablero[f][c];
    // no puede accederse a tablero[f][c]
    // ya que algn ndice puede ser negativo

    if ((f < DIM) && (f >= 0) && (c < DIM) && (c >= 0) && (tablero[f][c] != CASILLA_VACIA))
 c000fac:	e35e0007 	cmp	lr, #7
 c000fb0:	93550007 	cmpls	r5, #7
 c000fb4:	83a07000 	movhi	r7, #0
 c000fb8:	93a07001 	movls	r7, #1
        ficha = tablero[f][c];
    }
    else
    {
        *posicion_valida = 0;
        ficha = CASILLA_VACIA;
 c000fbc:	81a06007 	movhi	r6, r7
//    printf("%c, %c, %i",f, c, *posicion_valida);
    // ficha = tablero[f][c];
    // no puede accederse a tablero[f][c]
    // ya que algn ndice puede ser negativo

    if ((f < DIM) && (f >= 0) && (c < DIM) && (c >= 0) && (tablero[f][c] != CASILLA_VACIA))
 c000fc0:	8a000005 	bhi	c000fdc <actualizar_tablero.clone.0+0x8c>
 c000fc4:	e0807185 	add	r7, r0, r5, lsl #3
 c000fc8:	e087600e 	add	r6, r7, lr
 c000fcc:	e5d66008 	ldrb	r6, [r6, #8]
    {
        *posicion_valida = 1;
 c000fd0:	e3560000 	cmp	r6, #0
 c000fd4:	01a07006 	moveq	r7, r6
 c000fd8:	13a07001 	movne	r7, #1
//    printf("%c, %c, %i",f, c, *posicion_valida);
    // ficha = tablero[f][c];
    // no puede accederse a tablero[f][c]
    // ya que algn ndice puede ser negativo

    if ((f < DIM) && (f >= 0) && (c < DIM) && (c >= 0) && (tablero[f][c] != CASILLA_VACIA))
 c000fdc:	e0853001 	add	r3, r5, r1
 c000fe0:	e08ee002 	add	lr, lr, r2
 c000fe4:	e20350ff 	and	r5, r3, #255	; 0xff
 c000fe8:	e20ee0ff 	and	lr, lr, #255	; 0xff
    {
        *posicion_valida = 1;
 c000fec:	e3a03000 	mov	r3, #0
 c000ff0:	ea000010 	b	c001038 <actualizar_tablero.clone.0+0xe8>
//    printf("%c, %c, %i",f, c, *posicion_valida);
    // ficha = tablero[f][c];
    // no puede accederse a tablero[f][c]
    // ya que algn ndice puede ser negativo

    if ((f < DIM) && (f >= 0) && (c < DIM) && (c >= 0) && (tablero[f][c] != CASILLA_VACIA))
 c000ff4:	e35e0007 	cmp	lr, #7
 c000ff8:	93550007 	cmpls	r5, #7
 c000ffc:	83a07000 	movhi	r7, #0
 c001000:	93a07001 	movls	r7, #1
	// mientras la casilla est en el tablero, no est vaca,
	// y es del color rival seguimos buscando el patron de volteo
	{
		FA = FA + SF;
		CA = CA + SC;
		*longitud = *longitud + 1;
 c001004:	e2833001 	add	r3, r3, #1
        ficha = tablero[f][c];
    }
    else
    {
        *posicion_valida = 0;
        ficha = CASILLA_VACIA;
 c001008:	81a06007 	movhi	r6, r7
//    printf("%c, %c, %i",f, c, *posicion_valida);
    // ficha = tablero[f][c];
    // no puede accederse a tablero[f][c]
    // ya que algn ndice puede ser negativo

    if ((f < DIM) && (f >= 0) && (c < DIM) && (c >= 0) && (tablero[f][c] != CASILLA_VACIA))
 c00100c:	8a000005 	bhi	c001028 <actualizar_tablero.clone.0+0xd8>
 c001010:	e0806185 	add	r6, r0, r5, lsl #3
 c001014:	e086800e 	add	r8, r6, lr
 c001018:	e5d86008 	ldrb	r6, [r8, #8]
    {
        *posicion_valida = 1;
 c00101c:	e3560000 	cmp	r6, #0
 c001020:	01a07006 	moveq	r7, r6
 c001024:	13a07001 	movne	r7, #1
//    printf("%c, %c, %i",f, c, *posicion_valida);
    // ficha = tablero[f][c];
    // no puede accederse a tablero[f][c]
    // ya que algn ndice puede ser negativo

    if ((f < DIM) && (f >= 0) && (c < DIM) && (c >= 0) && (tablero[f][c] != CASILLA_VACIA))
 c001028:	e0855001 	add	r5, r5, r1
 c00102c:	e08ee002 	add	lr, lr, r2
 c001030:	e20550ff 	and	r5, r5, #255	; 0xff
 c001034:	e20ee0ff 	and	lr, lr, #255	; 0xff
	char casilla;   // casilla es la casilla que se lee del tablerotes();

	FA = FA + SF;
	CA = CA + SC;
	casilla = ficha_valida(tablero, FA, CA, &posicion_valida);
	while ((posicion_valida == 1) && (casilla != color))
 c001038:	e20770ff 	and	r7, r7, #255	; 0xff
 c00103c:	e1540006 	cmp	r4, r6
 c001040:	03a08000 	moveq	r8, #0
 c001044:	12078001 	andne	r8, r7, #1
 c001048:	e3580000 	cmp	r8, #0
 c00104c:	1affffe8 	bne	c000ff4 <actualizar_tablero.clone.0+0xa4>
		*longitud = *longitud + 1;
		casilla = ficha_valida(tablero, FA, CA, &posicion_valida);
	}
    // si la ultima posicin era vlida y la ficha es del jugador actual,
    // entonces hemos encontrado el patrn
	if ((posicion_valida == 1) && (casilla == color) && (*longitud >0)) {
 c001050:	e1540006 	cmp	r4, r6
 c001054:	13a07000 	movne	r7, #0
 c001058:	02077001 	andeq	r7, r7, #1
 c00105c:	e3570000 	cmp	r7, #0
 c001060:	0a000056 	beq	c0011c0 <actualizar_tablero.clone.0+0x270>
 c001064:	e3530000 	cmp	r3, #0
 c001068:	0a000054 	beq	c0011c0 <actualizar_tablero.clone.0+0x270>
{
    int i;

    for (i = 0; i < n; i++)
    {
        FA = FA + SF;
 c00106c:	e24b503c 	sub	r5, fp, #60	; 0x3c
 c001070:	e8950060 	ldm	r5, {r5, r6}
 c001074:	e086e001 	add	lr, r6, r1
        CA = CA + SC;
 c001078:	e0858002 	add	r8, r5, r2
{
    int i;

    for (i = 0; i < n; i++)
    {
        FA = FA + SF;
 c00107c:	e20ee0ff 	and	lr, lr, #255	; 0xff
        CA = CA + SC;
 c001080:	e20880ff 	and	r8, r8, #255	; 0xff
        tablero[FA][CA] = color;
 c001084:	e080718e 	add	r7, r0, lr, lsl #3
// FA y CA son la fila y columna a analizar
void voltear(char tablero[][DIM], char FA, char CA, char SF, char SC, int n, char color)
{
    int i;

    for (i = 0; i < n; i++)
 c001088:	e3a05001 	mov	r5, #1
 c00108c:	e2436001 	sub	r6, r3, #1
    {
        FA = FA + SF;
        CA = CA + SC;
        tablero[FA][CA] = color;
 c001090:	e0877008 	add	r7, r7, r8
// FA y CA son la fila y columna a analizar
void voltear(char tablero[][DIM], char FA, char CA, char SF, char SC, int n, char color)
{
    int i;

    for (i = 0; i < n; i++)
 c001094:	e1550003 	cmp	r5, r3
 c001098:	e2066003 	and	r6, r6, #3
    {
        FA = FA + SF;
        CA = CA + SC;
        tablero[FA][CA] = color;
 c00109c:	e5c74008 	strb	r4, [r7, #8]
// FA y CA son la fila y columna a analizar
void voltear(char tablero[][DIM], char FA, char CA, char SF, char SC, int n, char color)
{
    int i;

    for (i = 0; i < n; i++)
 c0010a0:	0a000046 	beq	c0011c0 <actualizar_tablero.clone.0+0x270>
 c0010a4:	e3560000 	cmp	r6, #0
 c0010a8:	0a00001d 	beq	c001124 <actualizar_tablero.clone.0+0x1d4>
 c0010ac:	e3560001 	cmp	r6, #1
 c0010b0:	0a000011 	beq	c0010fc <actualizar_tablero.clone.0+0x1ac>
 c0010b4:	e3560002 	cmp	r6, #2
 c0010b8:	0a000007 	beq	c0010dc <actualizar_tablero.clone.0+0x18c>
    {
        FA = FA + SF;
 c0010bc:	e08ee001 	add	lr, lr, r1
 c0010c0:	e20ee0ff 	and	lr, lr, #255	; 0xff
        CA = CA + SC;
 c0010c4:	e0888002 	add	r8, r8, r2
 c0010c8:	e20880ff 	and	r8, r8, #255	; 0xff
        tablero[FA][CA] = color;
 c0010cc:	e080618e 	add	r6, r0, lr, lsl #3
 c0010d0:	e0865008 	add	r5, r6, r8
 c0010d4:	e5c54008 	strb	r4, [r5, #8]
// FA y CA son la fila y columna a analizar
void voltear(char tablero[][DIM], char FA, char CA, char SF, char SC, int n, char color)
{
    int i;

    for (i = 0; i < n; i++)
 c0010d8:	e3a05002 	mov	r5, #2
    {
        FA = FA + SF;
 c0010dc:	e08ee001 	add	lr, lr, r1
 c0010e0:	e20ee0ff 	and	lr, lr, #255	; 0xff
        CA = CA + SC;
 c0010e4:	e0888002 	add	r8, r8, r2
 c0010e8:	e20880ff 	and	r8, r8, #255	; 0xff
        tablero[FA][CA] = color;
 c0010ec:	e080618e 	add	r6, r0, lr, lsl #3
 c0010f0:	e0866008 	add	r6, r6, r8
 c0010f4:	e5c64008 	strb	r4, [r6, #8]
// FA y CA son la fila y columna a analizar
void voltear(char tablero[][DIM], char FA, char CA, char SF, char SC, int n, char color)
{
    int i;

    for (i = 0; i < n; i++)
 c0010f8:	e2855001 	add	r5, r5, #1
    {
        FA = FA + SF;
 c0010fc:	e08ee001 	add	lr, lr, r1
 c001100:	e20ee0ff 	and	lr, lr, #255	; 0xff
        CA = CA + SC;
 c001104:	e0888002 	add	r8, r8, r2
 c001108:	e20880ff 	and	r8, r8, #255	; 0xff
        tablero[FA][CA] = color;
 c00110c:	e080618e 	add	r6, r0, lr, lsl #3
// FA y CA son la fila y columna a analizar
void voltear(char tablero[][DIM], char FA, char CA, char SF, char SC, int n, char color)
{
    int i;

    for (i = 0; i < n; i++)
 c001110:	e2855001 	add	r5, r5, #1
    {
        FA = FA + SF;
        CA = CA + SC;
        tablero[FA][CA] = color;
 c001114:	e0866008 	add	r6, r6, r8
// FA y CA son la fila y columna a analizar
void voltear(char tablero[][DIM], char FA, char CA, char SF, char SC, int n, char color)
{
    int i;

    for (i = 0; i < n; i++)
 c001118:	e1550003 	cmp	r5, r3
    {
        FA = FA + SF;
        CA = CA + SC;
        tablero[FA][CA] = color;
 c00111c:	e5c64008 	strb	r4, [r6, #8]
// FA y CA son la fila y columna a analizar
void voltear(char tablero[][DIM], char FA, char CA, char SF, char SC, int n, char color)
{
    int i;

    for (i = 0; i < n; i++)
 c001120:	0a000026 	beq	c0011c0 <actualizar_tablero.clone.0+0x270>
 c001124:	e50bc048 	str	ip, [fp, #-72]	; 0xffffffb8
 c001128:	e50b3044 	str	r3, [fp, #-68]	; 0xffffffbc
    {
        FA = FA + SF;
 c00112c:	e08ea001 	add	sl, lr, r1
 c001130:	e20a90ff 	and	r9, sl, #255	; 0xff
 c001134:	e0897001 	add	r7, r9, r1
        CA = CA + SC;
 c001138:	e0886002 	add	r6, r8, r2
{
    int i;

    for (i = 0; i < n; i++)
    {
        FA = FA + SF;
 c00113c:	e207a0ff 	and	sl, r7, #255	; 0xff
        CA = CA + SC;
 c001140:	e20660ff 	and	r6, r6, #255	; 0xff
{
    int i;

    for (i = 0; i < n; i++)
    {
        FA = FA + SF;
 c001144:	e08a8001 	add	r8, sl, r1
        CA = CA + SC;
 c001148:	e086c002 	add	ip, r6, r2
        tablero[FA][CA] = color;
 c00114c:	e0809189 	add	r9, r0, r9, lsl #3
{
    int i;

    for (i = 0; i < n; i++)
    {
        FA = FA + SF;
 c001150:	e20870ff 	and	r7, r8, #255	; 0xff
        CA = CA + SC;
 c001154:	e20cc0ff 	and	ip, ip, #255	; 0xff
        tablero[FA][CA] = color;
 c001158:	e50b9040 	str	r9, [fp, #-64]	; 0xffffffc0
    int i;

    for (i = 0; i < n; i++)
    {
        FA = FA + SF;
        CA = CA + SC;
 c00115c:	e08c3002 	add	r3, ip, r2
        tablero[FA][CA] = color;
 c001160:	e0809187 	add	r9, r0, r7, lsl #3
{
    int i;

    for (i = 0; i < n; i++)
    {
        FA = FA + SF;
 c001164:	e087e001 	add	lr, r7, r1
        CA = CA + SC;
        tablero[FA][CA] = color;
 c001168:	e51b7040 	ldr	r7, [fp, #-64]	; 0xffffffc0
    int i;

    for (i = 0; i < n; i++)
    {
        FA = FA + SF;
        CA = CA + SC;
 c00116c:	e20330ff 	and	r3, r3, #255	; 0xff
        tablero[FA][CA] = color;
 c001170:	e50b9050 	str	r9, [fp, #-80]	; 0xffffffb0
 c001174:	e080a18a 	add	sl, r0, sl, lsl #3
 c001178:	e0876006 	add	r6, r7, r6
 c00117c:	e08aa00c 	add	sl, sl, ip
{
    int i;

    for (i = 0; i < n; i++)
    {
        FA = FA + SF;
 c001180:	e20ee0ff 	and	lr, lr, #255	; 0xff
        CA = CA + SC;
 c001184:	e0838002 	add	r8, r3, r2
        tablero[FA][CA] = color;
 c001188:	e51b7050 	ldr	r7, [fp, #-80]	; 0xffffffb0
// FA y CA son la fila y columna a analizar
void voltear(char tablero[][DIM], char FA, char CA, char SF, char SC, int n, char color)
{
    int i;

    for (i = 0; i < n; i++)
 c00118c:	e51bc044 	ldr	ip, [fp, #-68]	; 0xffffffbc
    {
        FA = FA + SF;
        CA = CA + SC;
 c001190:	e20880ff 	and	r8, r8, #255	; 0xff
        tablero[FA][CA] = color;
 c001194:	e080918e 	add	r9, r0, lr, lsl #3
// FA y CA son la fila y columna a analizar
void voltear(char tablero[][DIM], char FA, char CA, char SF, char SC, int n, char color)
{
    int i;

    for (i = 0; i < n; i++)
 c001198:	e2855004 	add	r5, r5, #4
    {
        FA = FA + SF;
        CA = CA + SC;
        tablero[FA][CA] = color;
 c00119c:	e0877003 	add	r7, r7, r3
 c0011a0:	e0899008 	add	r9, r9, r8
// FA y CA son la fila y columna a analizar
void voltear(char tablero[][DIM], char FA, char CA, char SF, char SC, int n, char color)
{
    int i;

    for (i = 0; i < n; i++)
 c0011a4:	e155000c 	cmp	r5, ip
    {
        FA = FA + SF;
        CA = CA + SC;
        tablero[FA][CA] = color;
 c0011a8:	e5c64008 	strb	r4, [r6, #8]
 c0011ac:	e5ca4008 	strb	r4, [sl, #8]
 c0011b0:	e5c74008 	strb	r4, [r7, #8]
 c0011b4:	e5c94008 	strb	r4, [r9, #8]
// FA y CA son la fila y columna a analizar
void voltear(char tablero[][DIM], char FA, char CA, char SF, char SC, int n, char color)
{
    int i;

    for (i = 0; i < n; i++)
 c0011b8:	1affffdb 	bne	c00112c <actualizar_tablero.clone.0+0x1dc>
 c0011bc:	e51bc048 	ldr	ip, [fp, #-72]	; 0xffffffb8
    int i, flip, patron;
    volatile int tiempo = 0;

    timer2_inicializar();
    timer2_empezar();
    for (i = 0; i < DIM; i++) // 0 es Norte, 1 NE, 2 E ...
 c0011c0:	e28cc002 	add	ip, ip, #2
 c0011c4:	e35c0008 	cmp	ip, #8
 c0011c8:	1affff6d 	bne	c000f84 <actualizar_tablero.clone.0+0x34>
        {
            voltear(tablero, f, c, SF, SC, flip, color);
        }
        i++;
    }
    tiempo = timer2_parar();
 c0011cc:	eb000734 	bl	c002ea4 <timer2_parar>
 c0011d0:	e50b0030 	str	r0, [fp, #-48]	; 0xffffffd0
    return 0;
}
 c0011d4:	e3a00000 	mov	r0, #0
 c0011d8:	e24bd028 	sub	sp, fp, #40	; 0x28
 c0011dc:	e89d6ff0 	ldm	sp, {r4, r5, r6, r7, r8, r9, sl, fp, sp, lr}
 c0011e0:	e12fff1e 	bx	lr
 c0011e4:	0c0031f8 	.word	0x0c0031f8
 c0011e8:	0c003190 	.word	0x0c003190

0c0011ec <init_table>:

//////////////////////////////////////////////////////////////////////////////////////////////////////////////////////
// 0 indica CASILLA_VACIA, 1 indica FICHA_BLANCA y 2 indica FICHA_NEGRA
// pone el tablero a cero y luego coloca las fichas centrales.
void init_table(char tablero[][DIM], char candidatas[][DIM])
{
 c0011ec:	e92d07f0 	push	{r4, r5, r6, r7, r8, r9, sl}
 c0011f0:	e2103003 	ands	r3, r0, #3
 c0011f4:	e24dd01c 	sub	sp, sp, #28
 c0011f8:	1a00003b 	bne	c0012ec <init_table+0x100>
    int i, j;

    for (i = 0; i < DIM; i++)
    {
        for (j = 0; j < DIM; j++)
            tablero[i][j] = CASILLA_VACIA;
 c0011fc:	e1a02000 	mov	r2, r0
 c001200:	e4823004 	str	r3, [r2], #4
 c001204:	e282c020 	add	ip, r2, #32
 c001208:	e58dc004 	str	ip, [sp, #4]
 c00120c:	e282c024 	add	ip, r2, #36	; 0x24
 c001210:	e58dc008 	str	ip, [sp, #8]
 c001214:	e28cc004 	add	ip, ip, #4
 c001218:	e58dc00c 	str	ip, [sp, #12]
 c00121c:	e28cc004 	add	ip, ip, #4
 c001220:	e58dc010 	str	ip, [sp, #16]
 c001224:	e282a004 	add	sl, r2, #4
 c001228:	e28cc004 	add	ip, ip, #4
 c00122c:	e58dc014 	str	ip, [sp, #20]
 c001230:	e5803004 	str	r3, [r0, #4]
 c001234:	e5823004 	str	r3, [r2, #4]
 c001238:	e58a3004 	str	r3, [sl, #4]
 c00123c:	e58a3008 	str	r3, [sl, #8]
 c001240:	e58a300c 	str	r3, [sl, #12]
 c001244:	e58a3010 	str	r3, [sl, #16]
 c001248:	e58a3014 	str	r3, [sl, #20]
 c00124c:	e58a3018 	str	r3, [sl, #24]
 c001250:	e58a301c 	str	r3, [sl, #28]
 c001254:	e280c018 	add	ip, r0, #24
 c001258:	e2802020 	add	r2, r0, #32
 c00125c:	e59d0004 	ldr	r0, [sp, #4]
 c001260:	e5803004 	str	r3, [r0, #4]
 c001264:	e59d0008 	ldr	r0, [sp, #8]
 c001268:	e5803004 	str	r3, [r0, #4]
 c00126c:	e59d000c 	ldr	r0, [sp, #12]
 c001270:	e5803004 	str	r3, [r0, #4]
 c001274:	e59d0010 	ldr	r0, [sp, #16]
 c001278:	e5803004 	str	r3, [r0, #4]
 c00127c:	e59d0014 	ldr	r0, [sp, #20]
 c001280:	e5803004 	str	r3, [r0, #4]
 c001284:	e5803008 	str	r3, [r0, #8]
	    }
	}
    }
#endif
    // arriba hay versin alternativa
    tablero[3][3] = FICHA_BLANCA;
 c001288:	e3a03001 	mov	r3, #1
    tablero[4][4] = FICHA_BLANCA;
    tablero[3][4] = FICHA_NEGRA;
 c00128c:	e3a00002 	mov	r0, #2
	    }
	}
    }
#endif
    // arriba hay versin alternativa
    tablero[3][3] = FICHA_BLANCA;
 c001290:	e5cc3003 	strb	r3, [ip, #3]
    tablero[4][4] = FICHA_BLANCA;
 c001294:	e5c23004 	strb	r3, [r2, #4]
    tablero[3][4] = FICHA_NEGRA;
 c001298:	e5cc0004 	strb	r0, [ip, #4]
    tablero[4][3] = FICHA_NEGRA;
 c00129c:	e5c20003 	strb	r0, [r2, #3]

    candidatas[3][3] = CASILLA_OCUPADA;
 c0012a0:	e5c1001b 	strb	r0, [r1, #27]
    candidatas[4][4] = CASILLA_OCUPADA;
 c0012a4:	e5c10024 	strb	r0, [r1, #36]	; 0x24
    candidatas[3][4] = CASILLA_OCUPADA;
 c0012a8:	e5c1001c 	strb	r0, [r1, #28]
    candidatas[4][3] = CASILLA_OCUPADA;
 c0012ac:	e5c10023 	strb	r0, [r1, #35]	; 0x23

    // casillas a explorar:
    candidatas[2][2] = SI;
 c0012b0:	e5c13012 	strb	r3, [r1, #18]
    candidatas[2][3] = SI;
 c0012b4:	e5c13013 	strb	r3, [r1, #19]
    candidatas[2][4] = SI;
 c0012b8:	e5c13014 	strb	r3, [r1, #20]
    candidatas[2][5] = SI;
 c0012bc:	e5c13015 	strb	r3, [r1, #21]
    candidatas[3][2] = SI;
 c0012c0:	e5c1301a 	strb	r3, [r1, #26]
    candidatas[3][5] = SI;
 c0012c4:	e5c1301d 	strb	r3, [r1, #29]
    candidatas[4][2] = SI;
 c0012c8:	e5c13022 	strb	r3, [r1, #34]	; 0x22
    candidatas[4][5] = SI;
 c0012cc:	e5c13025 	strb	r3, [r1, #37]	; 0x25
    candidatas[5][2] = SI;
 c0012d0:	e5c1302a 	strb	r3, [r1, #42]	; 0x2a
    candidatas[5][3] = SI;
 c0012d4:	e5c1302b 	strb	r3, [r1, #43]	; 0x2b
    candidatas[5][4] = SI;
 c0012d8:	e5c1302c 	strb	r3, [r1, #44]	; 0x2c
    candidatas[5][5] = SI;
 c0012dc:	e5c1302d 	strb	r3, [r1, #45]	; 0x2d
}
 c0012e0:	e28dd01c 	add	sp, sp, #28
 c0012e4:	e8bd07f0 	pop	{r4, r5, r6, r7, r8, r9, sl}
 c0012e8:	e12fff1e 	bx	lr
    int i, j;

    for (i = 0; i < DIM; i++)
    {
        for (j = 0; j < DIM; j++)
            tablero[i][j] = CASILLA_VACIA;
 c0012ec:	e3a03000 	mov	r3, #0
 c0012f0:	e5c03000 	strb	r3, [r0]
 c0012f4:	e5c03001 	strb	r3, [r0, #1]
 c0012f8:	e5c03002 	strb	r3, [r0, #2]
 c0012fc:	e5c03003 	strb	r3, [r0, #3]
 c001300:	e5c03004 	strb	r3, [r0, #4]
 c001304:	e5c03005 	strb	r3, [r0, #5]
 c001308:	e5c03006 	strb	r3, [r0, #6]
 c00130c:	e5c03007 	strb	r3, [r0, #7]
 c001310:	e5c03008 	strb	r3, [r0, #8]
 c001314:	e5c03009 	strb	r3, [r0, #9]
 c001318:	e5c0300a 	strb	r3, [r0, #10]
 c00131c:	e5c0300b 	strb	r3, [r0, #11]
 c001320:	e5c0300c 	strb	r3, [r0, #12]
 c001324:	e5c0300d 	strb	r3, [r0, #13]
 c001328:	e5c0300e 	strb	r3, [r0, #14]
 c00132c:	e5c0300f 	strb	r3, [r0, #15]
 c001330:	e5c03010 	strb	r3, [r0, #16]
 c001334:	e5c03011 	strb	r3, [r0, #17]
 c001338:	e5c03012 	strb	r3, [r0, #18]
 c00133c:	e5c03013 	strb	r3, [r0, #19]
 c001340:	e5c03014 	strb	r3, [r0, #20]
 c001344:	e5c03015 	strb	r3, [r0, #21]
 c001348:	e5c03016 	strb	r3, [r0, #22]
 c00134c:	e5c03017 	strb	r3, [r0, #23]
 c001350:	e5c03018 	strb	r3, [r0, #24]
 c001354:	e5c03019 	strb	r3, [r0, #25]
 c001358:	e5c0301a 	strb	r3, [r0, #26]
 c00135c:	e5c0301b 	strb	r3, [r0, #27]
 c001360:	e5c0301c 	strb	r3, [r0, #28]
 c001364:	e5c0301d 	strb	r3, [r0, #29]
 c001368:	e5c0301e 	strb	r3, [r0, #30]
 c00136c:	e5c0301f 	strb	r3, [r0, #31]
 c001370:	e5c03020 	strb	r3, [r0, #32]
 c001374:	e280c018 	add	ip, r0, #24
 c001378:	e5c03021 	strb	r3, [r0, #33]	; 0x21
 c00137c:	e2802020 	add	r2, r0, #32
 c001380:	e5c03022 	strb	r3, [r0, #34]	; 0x22
 c001384:	e5c03023 	strb	r3, [r0, #35]	; 0x23
 c001388:	e5c03024 	strb	r3, [r0, #36]	; 0x24
 c00138c:	e5c03025 	strb	r3, [r0, #37]	; 0x25
 c001390:	e5c03026 	strb	r3, [r0, #38]	; 0x26
 c001394:	e5c03027 	strb	r3, [r0, #39]	; 0x27
 c001398:	e5c03028 	strb	r3, [r0, #40]	; 0x28
 c00139c:	e5c03029 	strb	r3, [r0, #41]	; 0x29
 c0013a0:	e5c0302a 	strb	r3, [r0, #42]	; 0x2a
 c0013a4:	e5c0302b 	strb	r3, [r0, #43]	; 0x2b
 c0013a8:	e5c0302c 	strb	r3, [r0, #44]	; 0x2c
 c0013ac:	e5c0302d 	strb	r3, [r0, #45]	; 0x2d
 c0013b0:	e5c0302e 	strb	r3, [r0, #46]	; 0x2e
 c0013b4:	e5c0302f 	strb	r3, [r0, #47]	; 0x2f
 c0013b8:	e5c03030 	strb	r3, [r0, #48]	; 0x30
 c0013bc:	e5c03031 	strb	r3, [r0, #49]	; 0x31
 c0013c0:	e5c03032 	strb	r3, [r0, #50]	; 0x32
 c0013c4:	e5c03033 	strb	r3, [r0, #51]	; 0x33
 c0013c8:	e5c03034 	strb	r3, [r0, #52]	; 0x34
 c0013cc:	e5c03035 	strb	r3, [r0, #53]	; 0x35
 c0013d0:	e5c03036 	strb	r3, [r0, #54]	; 0x36
 c0013d4:	e5c03037 	strb	r3, [r0, #55]	; 0x37
 c0013d8:	e5c03038 	strb	r3, [r0, #56]	; 0x38
 c0013dc:	e5c03039 	strb	r3, [r0, #57]	; 0x39
 c0013e0:	e5c0303a 	strb	r3, [r0, #58]	; 0x3a
 c0013e4:	e5c0303b 	strb	r3, [r0, #59]	; 0x3b
 c0013e8:	e5c0303c 	strb	r3, [r0, #60]	; 0x3c
 c0013ec:	e5c0303d 	strb	r3, [r0, #61]	; 0x3d
 c0013f0:	e5c0303e 	strb	r3, [r0, #62]	; 0x3e
 c0013f4:	e5c0303f 	strb	r3, [r0, #63]	; 0x3f
 c0013f8:	eaffffa2 	b	c001288 <init_table+0x9c>

0c0013fc <esperar_mov>:
// Espera a que ready valga 1.
// CUIDADO: si el compilador coloca esta variable en un registro, no funcionar.
// Hay que definirla como "volatile" para forzar a que antes de cada uso la cargue de memoria

void esperar_mov(char *ready)
{
 c0013fc:	e1a0c00d 	mov	ip, sp
 c001400:	e92dd818 	push	{r3, r4, fp, ip, lr, pc}
 c001404:	e1a04000 	mov	r4, r0
 c001408:	e24cb004 	sub	fp, ip, #4

	autoasignar();
 c00140c:	ebfffec6 	bl	c000f2c <autoasignar>
 c001410:	e5d43000 	ldrb	r3, [r4]
 c001414:	e3530000 	cmp	r3, #0
 c001418:	1a000000 	bne	c001420 <esperar_mov+0x24>
 c00141c:	eafffffe 	b	c00141c <esperar_mov+0x20>
    while (*ready == 0) {};  // bucle de espera de respuestas hasta que el se modifique el valor de ready (hay que hacerlo manualmente)

    *ready = 0;  //una vez que pasemos el bucle volvemos a fijar ready a 0;
 c001420:	e3a00000 	mov	r0, #0
 c001424:	e5c40000 	strb	r0, [r4]
}
 c001428:	e24bd014 	sub	sp, fp, #20
 c00142c:	e89d6818 	ldm	sp, {r3, r4, fp, sp, lr}
 c001430:	e12fff1e 	bx	lr

0c001434 <ficha_valida>:
//    printf("%c, %c, %i",f, c, *posicion_valida);
    // ficha = tablero[f][c];
    // no puede accederse a tablero[f][c]
    // ya que algn ndice puede ser negativo

    if ((f < DIM) && (f >= 0) && (c < DIM) && (c >= 0) && (tablero[f][c] != CASILLA_VACIA))
 c001434:	e3520007 	cmp	r2, #7
 c001438:	93510007 	cmpls	r1, #7
 c00143c:	8a000003 	bhi	c001450 <ficha_valida+0x1c>
 c001440:	e0801181 	add	r1, r0, r1, lsl #3
 c001444:	e7d10002 	ldrb	r0, [r1, r2]
 c001448:	e3500000 	cmp	r0, #0
 c00144c:	1a000002 	bne	c00145c <ficha_valida+0x28>
        *posicion_valida = 1;
        ficha = tablero[f][c];
    }
    else
    {
        *posicion_valida = 0;
 c001450:	e3a00000 	mov	r0, #0
 c001454:	e5830000 	str	r0, [r3]
        ficha = CASILLA_VACIA;
    }
    return ficha;
}
 c001458:	e12fff1e 	bx	lr
    // no puede accederse a tablero[f][c]
    // ya que algn ndice puede ser negativo

    if ((f < DIM) && (f >= 0) && (c < DIM) && (c >= 0) && (tablero[f][c] != CASILLA_VACIA))
    {
        *posicion_valida = 1;
 c00145c:	e3a0c001 	mov	ip, #1
 c001460:	e583c000 	str	ip, [r3]
        ficha = tablero[f][c];
 c001464:	e7d10002 	ldrb	r0, [r1, r2]
 c001468:	e12fff1e 	bx	lr

0c00146c <patron_volteo>:
// FA y CA son la fila y columna a analizar
// longitud es un parmetro por referencia. Sirve para saber la longitud del patrn que se est analizando.
//          Se usa para saber cuantas fichas habra que voltear
extern int patron_volteo_arm_arm(char tablero[][DIM], int *longitud, char FA, char CA, char SF, char SC, char color);
int patron_volteo(char tablero[][DIM], int *longitud, char FA, char CA, char SF, char SC, char color)
{
 c00146c:	e92d01f0 	push	{r4, r5, r6, r7, r8}
 c001470:	e5dd4014 	ldrb	r4, [sp, #20]
 c001474:	e5ddc018 	ldrb	ip, [sp, #24]
	int posicion_valida; // indica si la posicin es valida y contiene una ficha de algn jugador
	char casilla;   // casilla es la casilla que se lee del tablerotes();

	FA = FA + SF;
 c001478:	e0842002 	add	r2, r4, r2
	CA = CA + SC;
 c00147c:	e08c3003 	add	r3, ip, r3
int patron_volteo(char tablero[][DIM], int *longitud, char FA, char CA, char SF, char SC, char color)
{
	int posicion_valida; // indica si la posicin es valida y contiene una ficha de algn jugador
	char casilla;   // casilla es la casilla que se lee del tablerotes();

	FA = FA + SF;
 c001480:	e20220ff 	and	r2, r2, #255	; 0xff
	CA = CA + SC;
 c001484:	e20330ff 	and	r3, r3, #255	; 0xff
//    printf("%c, %c, %i",f, c, *posicion_valida);
    // ficha = tablero[f][c];
    // no puede accederse a tablero[f][c]
    // ya que algn ndice puede ser negativo

    if ((f < DIM) && (f >= 0) && (c < DIM) && (c >= 0) && (tablero[f][c] != CASILLA_VACIA))
 c001488:	e3530007 	cmp	r3, #7
 c00148c:	93520007 	cmpls	r2, #7
 c001490:	83a05000 	movhi	r5, #0
 c001494:	93a05001 	movls	r5, #1
// FA y CA son la fila y columna a analizar
// longitud es un parmetro por referencia. Sirve para saber la longitud del patrn que se est analizando.
//          Se usa para saber cuantas fichas habra que voltear
extern int patron_volteo_arm_arm(char tablero[][DIM], int *longitud, char FA, char CA, char SF, char SC, char color);
int patron_volteo(char tablero[][DIM], int *longitud, char FA, char CA, char SF, char SC, char color)
{
 c001498:	e5dd701c 	ldrb	r7, [sp, #28]
//    printf("%c, %c, %i",f, c, *posicion_valida);
    // ficha = tablero[f][c];
    // no puede accederse a tablero[f][c]
    // ya que algn ndice puede ser negativo

    if ((f < DIM) && (f >= 0) && (c < DIM) && (c >= 0) && (tablero[f][c] != CASILLA_VACIA))
 c00149c:	8a000016 	bhi	c0014fc <patron_volteo+0x90>
 c0014a0:	e0805182 	add	r5, r0, r2, lsl #3
 c0014a4:	e7d56003 	ldrb	r6, [r5, r3]
 c0014a8:	e3560000 	cmp	r6, #0
    {
        *posicion_valida = 1;
 c0014ac:	01a05006 	moveq	r5, r6
 c0014b0:	13a05001 	movne	r5, #1
	char casilla;   // casilla es la casilla que se lee del tablerotes();

	FA = FA + SF;
	CA = CA + SC;
	casilla = ficha_valida(tablero, FA, CA, &posicion_valida);
	while ((posicion_valida == 1) && (casilla != color))
 c0014b4:	e20550ff 	and	r5, r5, #255	; 0xff
 c0014b8:	e1560007 	cmp	r6, r7
 c0014bc:	03a08000 	moveq	r8, #0
 c0014c0:	12058001 	andne	r8, r5, #1
//    printf("%c, %c, %i",f, c, *posicion_valida);
    // ficha = tablero[f][c];
    // no puede accederse a tablero[f][c]
    // ya que algn ndice puede ser negativo

    if ((f < DIM) && (f >= 0) && (c < DIM) && (c >= 0) && (tablero[f][c] != CASILLA_VACIA))
 c0014c4:	e0822004 	add	r2, r2, r4
 c0014c8:	e083300c 	add	r3, r3, ip
	char casilla;   // casilla es la casilla que se lee del tablerotes();

	FA = FA + SF;
	CA = CA + SC;
	casilla = ficha_valida(tablero, FA, CA, &posicion_valida);
	while ((posicion_valida == 1) && (casilla != color))
 c0014cc:	e3580000 	cmp	r8, #0
//    printf("%c, %c, %i",f, c, *posicion_valida);
    // ficha = tablero[f][c];
    // no puede accederse a tablero[f][c]
    // ya que algn ndice puede ser negativo

    if ((f < DIM) && (f >= 0) && (c < DIM) && (c >= 0) && (tablero[f][c] != CASILLA_VACIA))
 c0014d0:	e20220ff 	and	r2, r2, #255	; 0xff
 c0014d4:	e20330ff 	and	r3, r3, #255	; 0xff
	char casilla;   // casilla es la casilla que se lee del tablerotes();

	FA = FA + SF;
	CA = CA + SC;
	casilla = ficha_valida(tablero, FA, CA, &posicion_valida);
	while ((posicion_valida == 1) && (casilla != color))
 c0014d8:	0a000009 	beq	c001504 <patron_volteo+0x98>
	// mientras la casilla est en el tablero, no est vaca,
	// y es del color rival seguimos buscando el patron de volteo
	{
		FA = FA + SF;
		CA = CA + SC;
		*longitud = *longitud + 1;
 c0014dc:	e5916000 	ldr	r6, [r1]
//    printf("%c, %c, %i",f, c, *posicion_valida);
    // ficha = tablero[f][c];
    // no puede accederse a tablero[f][c]
    // ya que algn ndice puede ser negativo

    if ((f < DIM) && (f >= 0) && (c < DIM) && (c >= 0) && (tablero[f][c] != CASILLA_VACIA))
 c0014e0:	e3530007 	cmp	r3, #7
 c0014e4:	93520007 	cmpls	r2, #7
	// mientras la casilla est en el tablero, no est vaca,
	// y es del color rival seguimos buscando el patron de volteo
	{
		FA = FA + SF;
		CA = CA + SC;
		*longitud = *longitud + 1;
 c0014e8:	e2868001 	add	r8, r6, #1
//    printf("%c, %c, %i",f, c, *posicion_valida);
    // ficha = tablero[f][c];
    // no puede accederse a tablero[f][c]
    // ya que algn ndice puede ser negativo

    if ((f < DIM) && (f >= 0) && (c < DIM) && (c >= 0) && (tablero[f][c] != CASILLA_VACIA))
 c0014ec:	83a05000 	movhi	r5, #0
 c0014f0:	93a05001 	movls	r5, #1
	// mientras la casilla est en el tablero, no est vaca,
	// y es del color rival seguimos buscando el patron de volteo
	{
		FA = FA + SF;
		CA = CA + SC;
		*longitud = *longitud + 1;
 c0014f4:	e5818000 	str	r8, [r1]
//    printf("%c, %c, %i",f, c, *posicion_valida);
    // ficha = tablero[f][c];
    // no puede accederse a tablero[f][c]
    // ya que algn ndice puede ser negativo

    if ((f < DIM) && (f >= 0) && (c < DIM) && (c >= 0) && (tablero[f][c] != CASILLA_VACIA))
 c0014f8:	9affffe8 	bls	c0014a0 <patron_volteo+0x34>
        ficha = tablero[f][c];
    }
    else
    {
        *posicion_valida = 0;
        ficha = CASILLA_VACIA;
 c0014fc:	e1a06005 	mov	r6, r5
 c001500:	eaffffeb 	b	c0014b4 <patron_volteo+0x48>
		*longitud = *longitud + 1;
		casilla = ficha_valida(tablero, FA, CA, &posicion_valida);
	}
    // si la ultima posicin era vlida y la ficha es del jugador actual,
    // entonces hemos encontrado el patrn
	if ((posicion_valida == 1) && (casilla == color) && (*longitud >0)) {
 c001504:	e1570006 	cmp	r7, r6
 c001508:	13a05000 	movne	r5, #0
 c00150c:	02055001 	andeq	r5, r5, #1
 c001510:	e3550000 	cmp	r5, #0

		return PATRON_ENCONTRADO;
	}// si hay que voltear una ficha o ms hemos encontrado el patrn
	else {
		return NO_HAY_PATRON; // si no hay que voltear no hay patrn
 c001514:	01a00005 	moveq	r0, r5
		*longitud = *longitud + 1;
		casilla = ficha_valida(tablero, FA, CA, &posicion_valida);
	}
    // si la ultima posicin era vlida y la ficha es del jugador actual,
    // entonces hemos encontrado el patrn
	if ((posicion_valida == 1) && (casilla == color) && (*longitud >0)) {
 c001518:	0a000003 	beq	c00152c <patron_volteo+0xc0>
// la funcin devuelve PATRON_ENCONTRADO (1) si encuentra patrn y NO_HAY_PATRON (0) en caso contrario
// FA y CA son la fila y columna a analizar
// longitud es un parmetro por referencia. Sirve para saber la longitud del patrn que se est analizando.
//          Se usa para saber cuantas fichas habra que voltear
extern int patron_volteo_arm_arm(char tablero[][DIM], int *longitud, char FA, char CA, char SF, char SC, char color);
int patron_volteo(char tablero[][DIM], int *longitud, char FA, char CA, char SF, char SC, char color)
 c00151c:	e5910000 	ldr	r0, [r1]
 c001520:	e3500000 	cmp	r0, #0
 c001524:	d3a00000 	movle	r0, #0
 c001528:	c3a00001 	movgt	r0, #1
		return PATRON_ENCONTRADO;
	}// si hay que voltear una ficha o ms hemos encontrado el patrn
	else {
		return NO_HAY_PATRON; // si no hay que voltear no hay patrn
	}
}
 c00152c:	e8bd01f0 	pop	{r4, r5, r6, r7, r8}
 c001530:	e12fff1e 	bx	lr

0c001534 <voltear>:
// voltea n fichas en la direccin que toque
// SF y SC son las cantidades a sumar para movernos en la direccin que toque
// color indica el color de la pieza que se acaba de colocar
// FA y CA son la fila y columna a analizar
void voltear(char tablero[][DIM], char FA, char CA, char SF, char SC, int n, char color)
{
 c001534:	e92d07f0 	push	{r4, r5, r6, r7, r8, r9, sl}
 c001538:	e24dd01c 	sub	sp, sp, #28
    int i;

    for (i = 0; i < n; i++)
 c00153c:	e59d603c 	ldr	r6, [sp, #60]	; 0x3c
 c001540:	e3560000 	cmp	r6, #0
// voltea n fichas en la direccin que toque
// SF y SC son las cantidades a sumar para movernos en la direccin que toque
// color indica el color de la pieza que se acaba de colocar
// FA y CA son la fila y columna a analizar
void voltear(char tablero[][DIM], char FA, char CA, char SF, char SC, int n, char color)
{
 c001544:	e5dd5038 	ldrb	r5, [sp, #56]	; 0x38
 c001548:	e5dd4040 	ldrb	r4, [sp, #64]	; 0x40
    int i;

    for (i = 0; i < n; i++)
 c00154c:	da00004b 	ble	c001680 <voltear+0x14c>
    {
        FA = FA + SF;
 c001550:	e0811003 	add	r1, r1, r3
 c001554:	e1a08006 	mov	r8, r6
 c001558:	e20110ff 	and	r1, r1, #255	; 0xff
        CA = CA + SC;
 c00155c:	e0822005 	add	r2, r2, r5
// FA y CA son la fila y columna a analizar
void voltear(char tablero[][DIM], char FA, char CA, char SF, char SC, int n, char color)
{
    int i;

    for (i = 0; i < n; i++)
 c001560:	e3a0c001 	mov	ip, #1
 c001564:	e2466001 	sub	r6, r6, #1
    {
        FA = FA + SF;
        CA = CA + SC;
 c001568:	e20220ff 	and	r2, r2, #255	; 0xff
        tablero[FA][CA] = color;
 c00156c:	e0807181 	add	r7, r0, r1, lsl #3
// FA y CA son la fila y columna a analizar
void voltear(char tablero[][DIM], char FA, char CA, char SF, char SC, int n, char color)
{
    int i;

    for (i = 0; i < n; i++)
 c001570:	e15c0008 	cmp	ip, r8
 c001574:	e2066003 	and	r6, r6, #3
    {
        FA = FA + SF;
        CA = CA + SC;
        tablero[FA][CA] = color;
 c001578:	e7c74002 	strb	r4, [r7, r2]
// FA y CA son la fila y columna a analizar
void voltear(char tablero[][DIM], char FA, char CA, char SF, char SC, int n, char color)
{
    int i;

    for (i = 0; i < n; i++)
 c00157c:	0a00003f 	beq	c001680 <voltear+0x14c>
 c001580:	e3560000 	cmp	r6, #0
 c001584:	0a00001b 	beq	c0015f8 <voltear+0xc4>
 c001588:	e3560001 	cmp	r6, #1
 c00158c:	0a00000f 	beq	c0015d0 <voltear+0x9c>
 c001590:	e3560002 	cmp	r6, #2
 c001594:	0a000006 	beq	c0015b4 <voltear+0x80>
    {
        FA = FA + SF;
 c001598:	e0811003 	add	r1, r1, r3
 c00159c:	e20110ff 	and	r1, r1, #255	; 0xff
        CA = CA + SC;
 c0015a0:	e0826005 	add	r6, r2, r5
        tablero[FA][CA] = color;
 c0015a4:	e080c181 	add	ip, r0, r1, lsl #3
    int i;

    for (i = 0; i < n; i++)
    {
        FA = FA + SF;
        CA = CA + SC;
 c0015a8:	e20620ff 	and	r2, r6, #255	; 0xff
        tablero[FA][CA] = color;
 c0015ac:	e7cc4002 	strb	r4, [ip, r2]
// FA y CA son la fila y columna a analizar
void voltear(char tablero[][DIM], char FA, char CA, char SF, char SC, int n, char color)
{
    int i;

    for (i = 0; i < n; i++)
 c0015b0:	e3a0c002 	mov	ip, #2
    {
        FA = FA + SF;
 c0015b4:	e0816003 	add	r6, r1, r3
 c0015b8:	e20610ff 	and	r1, r6, #255	; 0xff
        CA = CA + SC;
 c0015bc:	e0822005 	add	r2, r2, r5
 c0015c0:	e20220ff 	and	r2, r2, #255	; 0xff
        tablero[FA][CA] = color;
 c0015c4:	e0807181 	add	r7, r0, r1, lsl #3
 c0015c8:	e7c74002 	strb	r4, [r7, r2]
// FA y CA son la fila y columna a analizar
void voltear(char tablero[][DIM], char FA, char CA, char SF, char SC, int n, char color)
{
    int i;

    for (i = 0; i < n; i++)
 c0015cc:	e28cc001 	add	ip, ip, #1
    {
        FA = FA + SF;
        CA = CA + SC;
 c0015d0:	e0827005 	add	r7, r2, r5
 c0015d4:	e20720ff 	and	r2, r7, #255	; 0xff
{
    int i;

    for (i = 0; i < n; i++)
    {
        FA = FA + SF;
 c0015d8:	e0811003 	add	r1, r1, r3
// FA y CA son la fila y columna a analizar
void voltear(char tablero[][DIM], char FA, char CA, char SF, char SC, int n, char color)
{
    int i;

    for (i = 0; i < n; i++)
 c0015dc:	e59d703c 	ldr	r7, [sp, #60]	; 0x3c
    {
        FA = FA + SF;
 c0015e0:	e20110ff 	and	r1, r1, #255	; 0xff
// FA y CA son la fila y columna a analizar
void voltear(char tablero[][DIM], char FA, char CA, char SF, char SC, int n, char color)
{
    int i;

    for (i = 0; i < n; i++)
 c0015e4:	e28cc001 	add	ip, ip, #1
    {
        FA = FA + SF;
        CA = CA + SC;
        tablero[FA][CA] = color;
 c0015e8:	e0806181 	add	r6, r0, r1, lsl #3
// FA y CA son la fila y columna a analizar
void voltear(char tablero[][DIM], char FA, char CA, char SF, char SC, int n, char color)
{
    int i;

    for (i = 0; i < n; i++)
 c0015ec:	e15c0007 	cmp	ip, r7
    {
        FA = FA + SF;
        CA = CA + SC;
        tablero[FA][CA] = color;
 c0015f0:	e7c64002 	strb	r4, [r6, r2]
// FA y CA son la fila y columna a analizar
void voltear(char tablero[][DIM], char FA, char CA, char SF, char SC, int n, char color)
{
    int i;

    for (i = 0; i < n; i++)
 c0015f4:	0a000021 	beq	c001680 <voltear+0x14c>
    {
        FA = FA + SF;
        CA = CA + SC;
 c0015f8:	e0827005 	add	r7, r2, r5
 c0015fc:	e20770ff 	and	r7, r7, #255	; 0xff
{
    int i;

    for (i = 0; i < n; i++)
    {
        FA = FA + SF;
 c001600:	e081a003 	add	sl, r1, r3
 c001604:	e20aa0ff 	and	sl, sl, #255	; 0xff
        CA = CA + SC;
 c001608:	e0871005 	add	r1, r7, r5
 c00160c:	e20160ff 	and	r6, r1, #255	; 0xff
{
    int i;

    for (i = 0; i < n; i++)
    {
        FA = FA + SF;
 c001610:	e08a8003 	add	r8, sl, r3
 c001614:	e20880ff 	and	r8, r8, #255	; 0xff
        CA = CA + SC;
 c001618:	e0869005 	add	r9, r6, r5
{
    int i;

    for (i = 0; i < n; i++)
    {
        FA = FA + SF;
 c00161c:	e0882003 	add	r2, r8, r3
        CA = CA + SC;
 c001620:	e20990ff 	and	r9, r9, #255	; 0xff
 c001624:	e58d6004 	str	r6, [sp, #4]
{
    int i;

    for (i = 0; i < n; i++)
    {
        FA = FA + SF;
 c001628:	e20220ff 	and	r2, r2, #255	; 0xff
        CA = CA + SC;
 c00162c:	e0896005 	add	r6, r9, r5
        tablero[FA][CA] = color;
 c001630:	e080a18a 	add	sl, r0, sl, lsl #3
 c001634:	e58da00c 	str	sl, [sp, #12]
{
    int i;

    for (i = 0; i < n; i++)
    {
        FA = FA + SF;
 c001638:	e0821003 	add	r1, r2, r3
        CA = CA + SC;
        tablero[FA][CA] = color;
 c00163c:	e080a182 	add	sl, r0, r2, lsl #3
    int i;

    for (i = 0; i < n; i++)
    {
        FA = FA + SF;
        CA = CA + SC;
 c001640:	e20620ff 	and	r2, r6, #255	; 0xff
// FA y CA son la fila y columna a analizar
void voltear(char tablero[][DIM], char FA, char CA, char SF, char SC, int n, char color)
{
    int i;

    for (i = 0; i < n; i++)
 c001644:	e59d603c 	ldr	r6, [sp, #60]	; 0x3c
 c001648:	e28cc004 	add	ip, ip, #4
 c00164c:	e15c0006 	cmp	ip, r6
    {
        FA = FA + SF;
        CA = CA + SC;
        tablero[FA][CA] = color;
 c001650:	e59d600c 	ldr	r6, [sp, #12]
 c001654:	e0808188 	add	r8, r0, r8, lsl #3
 c001658:	e58d8010 	str	r8, [sp, #16]
 c00165c:	e7c64007 	strb	r4, [r6, r7]
 c001660:	e59d6010 	ldr	r6, [sp, #16]
 c001664:	e59d7004 	ldr	r7, [sp, #4]
{
    int i;

    for (i = 0; i < n; i++)
    {
        FA = FA + SF;
 c001668:	e20110ff 	and	r1, r1, #255	; 0xff
        CA = CA + SC;
        tablero[FA][CA] = color;
 c00166c:	e0808181 	add	r8, r0, r1, lsl #3
 c001670:	e7c64007 	strb	r4, [r6, r7]
 c001674:	e7ca4009 	strb	r4, [sl, r9]
 c001678:	e7c84002 	strb	r4, [r8, r2]
// FA y CA son la fila y columna a analizar
void voltear(char tablero[][DIM], char FA, char CA, char SF, char SC, int n, char color)
{
    int i;

    for (i = 0; i < n; i++)
 c00167c:	1affffdd 	bne	c0015f8 <voltear+0xc4>
    {
        FA = FA + SF;
        CA = CA + SC;
        tablero[FA][CA] = color;
    }
}
 c001680:	e28dd01c 	add	sp, sp, #28
 c001684:	e8bd07f0 	pop	{r4, r5, r6, r7, r8, r9, sl}
 c001688:	e12fff1e 	bx	lr

0c00168c <actualizar_tablero>:
// no comprueba que el movimiento realizado sea vlido
// f y c son la fila y columna a analizar
// char vSF[DIM] = {-1,-1, 0, 1, 1, 1, 0,-1};
// char vSC[DIM] = { 0, 1, 1, 1, 0,-1,-1,-1};
int actualizar_tablero(char tablero[][DIM], char f, char c, char color)
{
 c00168c:	e1a0c00d 	mov	ip, sp
 c001690:	e92ddff0 	push	{r4, r5, r6, r7, r8, r9, sl, fp, ip, lr, pc}
 c001694:	e24cb004 	sub	fp, ip, #4
 c001698:	e24dd02c 	sub	sp, sp, #44	; 0x2c
    char SF, SC; // cantidades a sumar para movernos en la direccin que toque
    int i, flip, patron;
    volatile int tiempo = 0;
 c00169c:	e3a06000 	mov	r6, #0
// no comprueba que el movimiento realizado sea vlido
// f y c son la fila y columna a analizar
// char vSF[DIM] = {-1,-1, 0, 1, 1, 1, 0,-1};
// char vSC[DIM] = { 0, 1, 1, 1, 0,-1,-1,-1};
int actualizar_tablero(char tablero[][DIM], char f, char c, char color)
{
 c0016a0:	e50b1038 	str	r1, [fp, #-56]	; 0xffffffc8
 c0016a4:	e50b203c 	str	r2, [fp, #-60]	; 0xffffffc4
 c0016a8:	e1a04003 	mov	r4, r3
 c0016ac:	e1a05000 	mov	r5, r0
    char SF, SC; // cantidades a sumar para movernos en la direccin que toque
    int i, flip, patron;
    volatile int tiempo = 0;
 c0016b0:	e50b6030 	str	r6, [fp, #-48]	; 0xffffffd0

    timer2_inicializar();
 c0016b4:	eb0005c5 	bl	c002dd0 <timer2_inicializar>
    timer2_empezar();
 c0016b8:	eb0005de 	bl	c002e38 <timer2_empezar>
    for (i = 0; i < DIM; i++) // 0 es Norte, 1 NE, 2 E ...
 c0016bc:	e1a00006 	mov	r0, r6
    {
        SF = vSF[i];
 c0016c0:	e59f8230 	ldr	r8, [pc, #560]	; c0018f8 <actualizar_tablero+0x26c>
        SC = vSC[i];
 c0016c4:	e2882008 	add	r2, r8, #8
{
	int posicion_valida; // indica si la posicin es valida y contiene una ficha de algn jugador
	char casilla;   // casilla es la casilla que se lee del tablerotes();

	FA = FA + SF;
	CA = CA + SC;
 c0016c8:	e51b703c 	ldr	r7, [fp, #-60]	; 0xffffffc4

    timer2_inicializar();
    timer2_empezar();
    for (i = 0; i < DIM; i++) // 0 es Norte, 1 NE, 2 E ...
    {
        SF = vSF[i];
 c0016cc:	e7d81000 	ldrb	r1, [r8, r0]
        SC = vSC[i];
 c0016d0:	e7d22000 	ldrb	r2, [r2, r0]
int patron_volteo(char tablero[][DIM], int *longitud, char FA, char CA, char SF, char SC, char color)
{
	int posicion_valida; // indica si la posicin es valida y contiene una ficha de algn jugador
	char casilla;   // casilla es la casilla que se lee del tablerotes();

	FA = FA + SF;
 c0016d4:	e51b3038 	ldr	r3, [fp, #-56]	; 0xffffffc8
	CA = CA + SC;
 c0016d8:	e087c002 	add	ip, r7, r2
int patron_volteo(char tablero[][DIM], int *longitud, char FA, char CA, char SF, char SC, char color)
{
	int posicion_valida; // indica si la posicin es valida y contiene una ficha de algn jugador
	char casilla;   // casilla es la casilla que se lee del tablerotes();

	FA = FA + SF;
 c0016dc:	e083e001 	add	lr, r3, r1
 c0016e0:	e20ee0ff 	and	lr, lr, #255	; 0xff
	CA = CA + SC;
 c0016e4:	e20cc0ff 	and	ip, ip, #255	; 0xff
//    printf("%c, %c, %i",f, c, *posicion_valida);
    // ficha = tablero[f][c];
    // no puede accederse a tablero[f][c]
    // ya que algn ndice puede ser negativo

    if ((f < DIM) && (f >= 0) && (c < DIM) && (c >= 0) && (tablero[f][c] != CASILLA_VACIA))
 c0016e8:	e35c0007 	cmp	ip, #7
 c0016ec:	935e0007 	cmpls	lr, #7
 c0016f0:	83a07000 	movhi	r7, #0
 c0016f4:	93a07001 	movls	r7, #1
        ficha = tablero[f][c];
    }
    else
    {
        *posicion_valida = 0;
        ficha = CASILLA_VACIA;
 c0016f8:	81a06007 	movhi	r6, r7
//    printf("%c, %c, %i",f, c, *posicion_valida);
    // ficha = tablero[f][c];
    // no puede accederse a tablero[f][c]
    // ya que algn ndice puede ser negativo

    if ((f < DIM) && (f >= 0) && (c < DIM) && (c >= 0) && (tablero[f][c] != CASILLA_VACIA))
 c0016fc:	8a000004 	bhi	c001714 <actualizar_tablero+0x88>
 c001700:	e085618e 	add	r6, r5, lr, lsl #3
 c001704:	e7d6600c 	ldrb	r6, [r6, ip]
    {
        *posicion_valida = 1;
 c001708:	e3560000 	cmp	r6, #0
 c00170c:	01a07006 	moveq	r7, r6
 c001710:	13a07001 	movne	r7, #1
//    printf("%c, %c, %i",f, c, *posicion_valida);
    // ficha = tablero[f][c];
    // no puede accederse a tablero[f][c]
    // ya que algn ndice puede ser negativo

    if ((f < DIM) && (f >= 0) && (c < DIM) && (c >= 0) && (tablero[f][c] != CASILLA_VACIA))
 c001714:	e08ee001 	add	lr, lr, r1
 c001718:	e08cc002 	add	ip, ip, r2
 c00171c:	e20ee0ff 	and	lr, lr, #255	; 0xff
 c001720:	e20cc0ff 	and	ip, ip, #255	; 0xff
    {
        *posicion_valida = 1;
 c001724:	e3a03000 	mov	r3, #0
 c001728:	ea00000f 	b	c00176c <actualizar_tablero+0xe0>
//    printf("%c, %c, %i",f, c, *posicion_valida);
    // ficha = tablero[f][c];
    // no puede accederse a tablero[f][c]
    // ya que algn ndice puede ser negativo

    if ((f < DIM) && (f >= 0) && (c < DIM) && (c >= 0) && (tablero[f][c] != CASILLA_VACIA))
 c00172c:	e35c0007 	cmp	ip, #7
 c001730:	935e0007 	cmpls	lr, #7
 c001734:	83a07000 	movhi	r7, #0
 c001738:	93a07001 	movls	r7, #1
	// mientras la casilla est en el tablero, no est vaca,
	// y es del color rival seguimos buscando el patron de volteo
	{
		FA = FA + SF;
		CA = CA + SC;
		*longitud = *longitud + 1;
 c00173c:	e2833001 	add	r3, r3, #1
        ficha = tablero[f][c];
    }
    else
    {
        *posicion_valida = 0;
        ficha = CASILLA_VACIA;
 c001740:	81a06007 	movhi	r6, r7
//    printf("%c, %c, %i",f, c, *posicion_valida);
    // ficha = tablero[f][c];
    // no puede accederse a tablero[f][c]
    // ya que algn ndice puede ser negativo

    if ((f < DIM) && (f >= 0) && (c < DIM) && (c >= 0) && (tablero[f][c] != CASILLA_VACIA))
 c001744:	8a000004 	bhi	c00175c <actualizar_tablero+0xd0>
 c001748:	e085718e 	add	r7, r5, lr, lsl #3
 c00174c:	e7d7600c 	ldrb	r6, [r7, ip]
    {
        *posicion_valida = 1;
 c001750:	e3560000 	cmp	r6, #0
 c001754:	01a07006 	moveq	r7, r6
 c001758:	13a07001 	movne	r7, #1
//    printf("%c, %c, %i",f, c, *posicion_valida);
    // ficha = tablero[f][c];
    // no puede accederse a tablero[f][c]
    // ya que algn ndice puede ser negativo

    if ((f < DIM) && (f >= 0) && (c < DIM) && (c >= 0) && (tablero[f][c] != CASILLA_VACIA))
 c00175c:	e08ee001 	add	lr, lr, r1
 c001760:	e08c8002 	add	r8, ip, r2
 c001764:	e20ee0ff 	and	lr, lr, #255	; 0xff
 c001768:	e208c0ff 	and	ip, r8, #255	; 0xff
	char casilla;   // casilla es la casilla que se lee del tablerotes();

	FA = FA + SF;
	CA = CA + SC;
	casilla = ficha_valida(tablero, FA, CA, &posicion_valida);
	while ((posicion_valida == 1) && (casilla != color))
 c00176c:	e20770ff 	and	r7, r7, #255	; 0xff
 c001770:	e1540006 	cmp	r4, r6
 c001774:	03a08000 	moveq	r8, #0
 c001778:	12078001 	andne	r8, r7, #1
 c00177c:	e3580000 	cmp	r8, #0
 c001780:	1affffe9 	bne	c00172c <actualizar_tablero+0xa0>
		*longitud = *longitud + 1;
		casilla = ficha_valida(tablero, FA, CA, &posicion_valida);
	}
    // si la ultima posicin era vlida y la ficha es del jugador actual,
    // entonces hemos encontrado el patrn
	if ((posicion_valida == 1) && (casilla == color) && (*longitud >0)) {
 c001784:	e1540006 	cmp	r4, r6
 c001788:	13a07000 	movne	r7, #0
 c00178c:	02077001 	andeq	r7, r7, #1
 c001790:	e3570000 	cmp	r7, #0
 c001794:	0a00004e 	beq	c0018d4 <actualizar_tablero+0x248>
 c001798:	e3530000 	cmp	r3, #0
 c00179c:	0a00004c 	beq	c0018d4 <actualizar_tablero+0x248>
{
    int i;

    for (i = 0; i < n; i++)
    {
        FA = FA + SF;
 c0017a0:	e24b803c 	sub	r8, fp, #60	; 0x3c
 c0017a4:	e8984100 	ldm	r8, {r8, lr}
 c0017a8:	e08ec001 	add	ip, lr, r1
        CA = CA + SC;
 c0017ac:	e0887002 	add	r7, r8, r2
{
    int i;

    for (i = 0; i < n; i++)
    {
        FA = FA + SF;
 c0017b0:	e20cc0ff 	and	ip, ip, #255	; 0xff
// FA y CA son la fila y columna a analizar
void voltear(char tablero[][DIM], char FA, char CA, char SF, char SC, int n, char color)
{
    int i;

    for (i = 0; i < n; i++)
 c0017b4:	e3a0e001 	mov	lr, #1
    {
        FA = FA + SF;
        CA = CA + SC;
 c0017b8:	e20780ff 	and	r8, r7, #255	; 0xff
 c0017bc:	e2436001 	sub	r6, r3, #1
        tablero[FA][CA] = color;
 c0017c0:	e085718c 	add	r7, r5, ip, lsl #3
// FA y CA son la fila y columna a analizar
void voltear(char tablero[][DIM], char FA, char CA, char SF, char SC, int n, char color)
{
    int i;

    for (i = 0; i < n; i++)
 c0017c4:	e15e0003 	cmp	lr, r3
 c0017c8:	e2066003 	and	r6, r6, #3
    {
        FA = FA + SF;
        CA = CA + SC;
        tablero[FA][CA] = color;
 c0017cc:	e7c74008 	strb	r4, [r7, r8]
// FA y CA son la fila y columna a analizar
void voltear(char tablero[][DIM], char FA, char CA, char SF, char SC, int n, char color)
{
    int i;

    for (i = 0; i < n; i++)
 c0017d0:	0a00003f 	beq	c0018d4 <actualizar_tablero+0x248>
 c0017d4:	e3560000 	cmp	r6, #0
 c0017d8:	0a00001a 	beq	c001848 <actualizar_tablero+0x1bc>
 c0017dc:	e3560001 	cmp	r6, #1
 c0017e0:	0a00000f 	beq	c001824 <actualizar_tablero+0x198>
 c0017e4:	e3560002 	cmp	r6, #2
 c0017e8:	0a000006 	beq	c001808 <actualizar_tablero+0x17c>
    {
        FA = FA + SF;
 c0017ec:	e08cc001 	add	ip, ip, r1
 c0017f0:	e20cc0ff 	and	ip, ip, #255	; 0xff
        CA = CA + SC;
 c0017f4:	e0888002 	add	r8, r8, r2
        tablero[FA][CA] = color;
 c0017f8:	e085e18c 	add	lr, r5, ip, lsl #3
    int i;

    for (i = 0; i < n; i++)
    {
        FA = FA + SF;
        CA = CA + SC;
 c0017fc:	e20880ff 	and	r8, r8, #255	; 0xff
        tablero[FA][CA] = color;
 c001800:	e7ce4008 	strb	r4, [lr, r8]
// FA y CA son la fila y columna a analizar
void voltear(char tablero[][DIM], char FA, char CA, char SF, char SC, int n, char color)
{
    int i;

    for (i = 0; i < n; i++)
 c001804:	e3a0e002 	mov	lr, #2
    {
        FA = FA + SF;
 c001808:	e08cc001 	add	ip, ip, r1
 c00180c:	e20cc0ff 	and	ip, ip, #255	; 0xff
        CA = CA + SC;
 c001810:	e0888002 	add	r8, r8, r2
 c001814:	e20880ff 	and	r8, r8, #255	; 0xff
        tablero[FA][CA] = color;
 c001818:	e085618c 	add	r6, r5, ip, lsl #3
 c00181c:	e7c64008 	strb	r4, [r6, r8]
// FA y CA son la fila y columna a analizar
void voltear(char tablero[][DIM], char FA, char CA, char SF, char SC, int n, char color)
{
    int i;

    for (i = 0; i < n; i++)
 c001820:	e28ee001 	add	lr, lr, #1
    {
        FA = FA + SF;
 c001824:	e08cc001 	add	ip, ip, r1
        CA = CA + SC;
 c001828:	e0886002 	add	r6, r8, r2
{
    int i;

    for (i = 0; i < n; i++)
    {
        FA = FA + SF;
 c00182c:	e20cc0ff 	and	ip, ip, #255	; 0xff
// FA y CA son la fila y columna a analizar
void voltear(char tablero[][DIM], char FA, char CA, char SF, char SC, int n, char color)
{
    int i;

    for (i = 0; i < n; i++)
 c001830:	e28ee001 	add	lr, lr, #1
    {
        FA = FA + SF;
        CA = CA + SC;
 c001834:	e20680ff 	and	r8, r6, #255	; 0xff
// FA y CA son la fila y columna a analizar
void voltear(char tablero[][DIM], char FA, char CA, char SF, char SC, int n, char color)
{
    int i;

    for (i = 0; i < n; i++)
 c001838:	e15e0003 	cmp	lr, r3
    {
        FA = FA + SF;
        CA = CA + SC;
        tablero[FA][CA] = color;
 c00183c:	e085618c 	add	r6, r5, ip, lsl #3
 c001840:	e7c64008 	strb	r4, [r6, r8]
// FA y CA son la fila y columna a analizar
void voltear(char tablero[][DIM], char FA, char CA, char SF, char SC, int n, char color)
{
    int i;

    for (i = 0; i < n; i++)
 c001844:	0a000022 	beq	c0018d4 <actualizar_tablero+0x248>
 c001848:	e50b0048 	str	r0, [fp, #-72]	; 0xffffffb8
 c00184c:	e50b3044 	str	r3, [fp, #-68]	; 0xffffffbc
    {
        FA = FA + SF;
 c001850:	e08ca001 	add	sl, ip, r1
 c001854:	e20a90ff 	and	r9, sl, #255	; 0xff
 c001858:	e0897001 	add	r7, r9, r1
 c00185c:	e207a0ff 	and	sl, r7, #255	; 0xff
        CA = CA + SC;
 c001860:	e0886002 	add	r6, r8, r2
{
    int i;

    for (i = 0; i < n; i++)
    {
        FA = FA + SF;
 c001864:	e08a8001 	add	r8, sl, r1
 c001868:	e20870ff 	and	r7, r8, #255	; 0xff
        CA = CA + SC;
        tablero[FA][CA] = color;
 c00186c:	e0859189 	add	r9, r5, r9, lsl #3
 c001870:	e50b9040 	str	r9, [fp, #-64]	; 0xffffffc0
    int i;

    for (i = 0; i < n; i++)
    {
        FA = FA + SF;
        CA = CA + SC;
 c001874:	e20660ff 	and	r6, r6, #255	; 0xff
        tablero[FA][CA] = color;
 c001878:	e0859187 	add	r9, r5, r7, lsl #3
{
    int i;

    for (i = 0; i < n; i++)
    {
        FA = FA + SF;
 c00187c:	e087c001 	add	ip, r7, r1
// FA y CA son la fila y columna a analizar
void voltear(char tablero[][DIM], char FA, char CA, char SF, char SC, int n, char color)
{
    int i;

    for (i = 0; i < n; i++)
 c001880:	e51b7044 	ldr	r7, [fp, #-68]	; 0xffffffbc
    {
        FA = FA + SF;
        CA = CA + SC;
 c001884:	e0860002 	add	r0, r6, r2
// FA y CA son la fila y columna a analizar
void voltear(char tablero[][DIM], char FA, char CA, char SF, char SC, int n, char color)
{
    int i;

    for (i = 0; i < n; i++)
 c001888:	e28ee004 	add	lr, lr, #4
    {
        FA = FA + SF;
        CA = CA + SC;
 c00188c:	e20000ff 	and	r0, r0, #255	; 0xff
// FA y CA son la fila y columna a analizar
void voltear(char tablero[][DIM], char FA, char CA, char SF, char SC, int n, char color)
{
    int i;

    for (i = 0; i < n; i++)
 c001890:	e15e0007 	cmp	lr, r7
    {
        FA = FA + SF;
        CA = CA + SC;
        tablero[FA][CA] = color;
 c001894:	e51b7040 	ldr	r7, [fp, #-64]	; 0xffffffc0
    int i;

    for (i = 0; i < n; i++)
    {
        FA = FA + SF;
        CA = CA + SC;
 c001898:	e0803002 	add	r3, r0, r2
        tablero[FA][CA] = color;
 c00189c:	e085a18a 	add	sl, r5, sl, lsl #3
 c0018a0:	e50b9050 	str	r9, [fp, #-80]	; 0xffffffb0
    int i;

    for (i = 0; i < n; i++)
    {
        FA = FA + SF;
        CA = CA + SC;
 c0018a4:	e20330ff 	and	r3, r3, #255	; 0xff
        tablero[FA][CA] = color;
 c0018a8:	e7c74006 	strb	r4, [r7, r6]
 c0018ac:	e7ca4000 	strb	r4, [sl, r0]
 c0018b0:	e51b0050 	ldr	r0, [fp, #-80]	; 0xffffffb0
{
    int i;

    for (i = 0; i < n; i++)
    {
        FA = FA + SF;
 c0018b4:	e20cc0ff 	and	ip, ip, #255	; 0xff
        CA = CA + SC;
 c0018b8:	e0838002 	add	r8, r3, r2
 c0018bc:	e20880ff 	and	r8, r8, #255	; 0xff
        tablero[FA][CA] = color;
 c0018c0:	e085918c 	add	r9, r5, ip, lsl #3
 c0018c4:	e7c04003 	strb	r4, [r0, r3]
 c0018c8:	e7c94008 	strb	r4, [r9, r8]
// FA y CA son la fila y columna a analizar
void voltear(char tablero[][DIM], char FA, char CA, char SF, char SC, int n, char color)
{
    int i;

    for (i = 0; i < n; i++)
 c0018cc:	1affffdf 	bne	c001850 <actualizar_tablero+0x1c4>
 c0018d0:	e51b0048 	ldr	r0, [fp, #-72]	; 0xffffffb8
    int i, flip, patron;
    volatile int tiempo = 0;

    timer2_inicializar();
    timer2_empezar();
    for (i = 0; i < DIM; i++) // 0 es Norte, 1 NE, 2 E ...
 c0018d4:	e2800002 	add	r0, r0, #2
 c0018d8:	e3500008 	cmp	r0, #8
 c0018dc:	1affff77 	bne	c0016c0 <actualizar_tablero+0x34>
        {
            voltear(tablero, f, c, SF, SC, flip, color);
        }
        i++;
    }
    tiempo = timer2_parar();
 c0018e0:	eb00056f 	bl	c002ea4 <timer2_parar>
 c0018e4:	e50b0030 	str	r0, [fp, #-48]	; 0xffffffd0
    return 0;
}
 c0018e8:	e3a00000 	mov	r0, #0
 c0018ec:	e24bd028 	sub	sp, fp, #40	; 0x28
 c0018f0:	e89d6ff0 	ldm	sp, {r4, r5, r6, r7, r8, r9, sl, fp, sp, lr}
 c0018f4:	e12fff1e 	bx	lr
 c0018f8:	0c003190 	.word	0x0c003190

0c0018fc <elegir_mov>:
// Candidatas
// NO    0
// SI    1
// CASILLA_OCUPADA 2
int elegir_mov(char candidatas[][DIM], char tablero[][DIM], char *f, char *c)
{
 c0018fc:	e92d07f0 	push	{r4, r5, r6, r7, r8, r9, sl}
 c001900:	e24dd02c 	sub	sp, sp, #44	; 0x2c
    int patron, longitud;
    char SF, SC; // cantidades a sumar para movernos en la direccin que toque

    // Recorremos todo el tablero comprobando dnde podemos mover
    // Comparamos la puntuacin de los movimientos encontrados y nos quedamos con el mejor
    for (i=0; i<DIM; i++)
 c001904:	e3a0c000 	mov	ip, #0
                        patron = patron_volteo(tablero, &longitud, i, j, SF, SC, FICHA_BLANCA);
                        //  //printf("%d ", patron);
                        if (patron == PATRON_ENCONTRADO)
                        {
                            found = 1;
                            if (tabla_valor[i][j] > mejor)
 c001908:	e58d0000 	str	r0, [sp]
// SI    1
// CASILLA_OCUPADA 2
int elegir_mov(char candidatas[][DIM], char tablero[][DIM], char *f, char *c)
{
    int i, j, k, found;
    int mf = -1; // almacena la fila del mejor movimiento encontrado
 c00190c:	e3e00000 	mvn	r0, #0
    int patron, longitud;
    char SF, SC; // cantidades a sumar para movernos en la direccin que toque

    // Recorremos todo el tablero comprobando dnde podemos mover
    // Comparamos la puntuacin de los movimientos encontrados y nos quedamos con el mejor
    for (i=0; i<DIM; i++)
 c001910:	e58dc00c 	str	ip, [sp, #12]
// Candidatas
// NO    0
// SI    1
// CASILLA_OCUPADA 2
int elegir_mov(char candidatas[][DIM], char tablero[][DIM], char *f, char *c)
{
 c001914:	e58d2020 	str	r2, [sp, #32]
                        patron = patron_volteo(tablero, &longitud, i, j, SF, SC, FICHA_BLANCA);
                        //  //printf("%d ", patron);
                        if (patron == PATRON_ENCONTRADO)
                        {
                            found = 1;
                            if (tabla_valor[i][j] > mejor)
 c001918:	e58d1014 	str	r1, [sp, #20]
int elegir_mov(char candidatas[][DIM], char tablero[][DIM], char *f, char *c)
{
    int i, j, k, found;
    int mf = -1; // almacena la fila del mejor movimiento encontrado
    int mc;      // almacena la columna del mejor movimiento encontrado
    char mejor = 0; // almacena el mejor valor encontrado
 c00191c:	e58dc010 	str	ip, [sp, #16]
// SI    1
// CASILLA_OCUPADA 2
int elegir_mov(char candidatas[][DIM], char tablero[][DIM], char *f, char *c)
{
    int i, j, k, found;
    int mf = -1; // almacena la fila del mejor movimiento encontrado
 c001920:	e58d0018 	str	r0, [sp, #24]
// Candidatas
// NO    0
// SI    1
// CASILLA_OCUPADA 2
int elegir_mov(char candidatas[][DIM], char tablero[][DIM], char *f, char *c)
{
 c001924:	e58d3024 	str	r3, [sp, #36]	; 0x24
 c001928:	e1a0300c 	mov	r3, ip

// Candidatas
// NO    0
// SI    1
// CASILLA_OCUPADA 2
int elegir_mov(char candidatas[][DIM], char tablero[][DIM], char *f, char *c)
 c00192c:	e59f81bc 	ldr	r8, [pc, #444]	; c001af0 <elegir_mov+0x1f4>
    {
        for (j=0; j<DIM; j++)
        {   // indica en qu casillas quiz se pueda mover
            if (candidatas[i][j] == SI)
            {
                if (tablero[i][j] == CASILLA_VACIA)
 c001930:	e20300ff 	and	r0, r3, #255	; 0xff

// Candidatas
// NO    0
// SI    1
// CASILLA_OCUPADA 2
int elegir_mov(char candidatas[][DIM], char tablero[][DIM], char *f, char *c)
 c001934:	e0889183 	add	r9, r8, r3, lsl #3
    {
        for (j=0; j<DIM; j++)
        {   // indica en qu casillas quiz se pueda mover
            if (candidatas[i][j] == SI)
            {
                if (tablero[i][j] == CASILLA_VACIA)
 c001938:	e58d0008 	str	r0, [sp, #8]

// Candidatas
// NO    0
// SI    1
// CASILLA_OCUPADA 2
int elegir_mov(char candidatas[][DIM], char tablero[][DIM], char *f, char *c)
 c00193c:	e3a08000 	mov	r8, #0
 c001940:	ea000003 	b	c001954 <elegir_mov+0x58>

    // Recorremos todo el tablero comprobando dnde podemos mover
    // Comparamos la puntuacin de los movimientos encontrados y nos quedamos con el mejor
    for (i=0; i<DIM; i++)
    {
        for (j=0; j<DIM; j++)
 c001944:	e2888001 	add	r8, r8, #1
 c001948:	e3580008 	cmp	r8, #8
 c00194c:	e2899001 	add	r9, r9, #1
 c001950:	0a00004d 	beq	c001a8c <elegir_mov+0x190>
        {   // indica en qu casillas quiz se pueda mover
            if (candidatas[i][j] == SI)
 c001954:	e59d2000 	ldr	r2, [sp]
 c001958:	e7d23008 	ldrb	r3, [r2, r8]
 c00195c:	e3530001 	cmp	r3, #1
 c001960:	1afffff7 	bne	c001944 <elegir_mov+0x48>
            {
                if (tablero[i][j] == CASILLA_VACIA)
 c001964:	e59d7014 	ldr	r7, [sp, #20]
 c001968:	e7d77008 	ldrb	r7, [r7, r8]
 c00196c:	e3570000 	cmp	r7, #0
 c001970:	1afffff3 	bne	c001944 <elegir_mov+0x48>
 c001974:	e20840ff 	and	r4, r8, #255	; 0xff
 c001978:	e58d4004 	str	r4, [sp, #4]

                    // en este bucle comprobamos si es un movimiento vlido
                    // (es decir si implica voltear en alguna direccin)
                    while ((found == 0) && (k < DIM))
                    {
                        SF = vSF[k];    // k representa la direccin que miramos
 c00197c:	e59f0170 	ldr	r0, [pc, #368]	; c001af4 <elegir_mov+0x1f8>
                        SC = vSC[k];    // 1 es norte, 2 NE, 3 E ...
 c001980:	e2805008 	add	r5, r0, #8

                    // en este bucle comprobamos si es un movimiento vlido
                    // (es decir si implica voltear en alguna direccin)
                    while ((found == 0) && (k < DIM))
                    {
                        SF = vSF[k];    // k representa la direccin que miramos
 c001984:	e7d06007 	ldrb	r6, [r0, r7]
int patron_volteo(char tablero[][DIM], int *longitud, char FA, char CA, char SF, char SC, char color)
{
	int posicion_valida; // indica si la posicin es valida y contiene una ficha de algn jugador
	char casilla;   // casilla es la casilla que se lee del tablerotes();

	FA = FA + SF;
 c001988:	e59d2008 	ldr	r2, [sp, #8]
	CA = CA + SC;
 c00198c:	e59dc004 	ldr	ip, [sp, #4]
                    // en este bucle comprobamos si es un movimiento vlido
                    // (es decir si implica voltear en alguna direccin)
                    while ((found == 0) && (k < DIM))
                    {
                        SF = vSF[k];    // k representa la direccin que miramos
                        SC = vSC[k];    // 1 es norte, 2 NE, 3 E ...
 c001990:	e7d55007 	ldrb	r5, [r5, r7]
int patron_volteo(char tablero[][DIM], int *longitud, char FA, char CA, char SF, char SC, char color)
{
	int posicion_valida; // indica si la posicin es valida y contiene una ficha de algn jugador
	char casilla;   // casilla es la casilla que se lee del tablerotes();

	FA = FA + SF;
 c001994:	e0863002 	add	r3, r6, r2
	CA = CA + SC;
 c001998:	e085a00c 	add	sl, r5, ip
int patron_volteo(char tablero[][DIM], int *longitud, char FA, char CA, char SF, char SC, char color)
{
	int posicion_valida; // indica si la posicin es valida y contiene una ficha de algn jugador
	char casilla;   // casilla es la casilla que se lee del tablerotes();

	FA = FA + SF;
 c00199c:	e20320ff 	and	r2, r3, #255	; 0xff
	CA = CA + SC;
 c0019a0:	e20a30ff 	and	r3, sl, #255	; 0xff
//    printf("%c, %c, %i",f, c, *posicion_valida);
    // ficha = tablero[f][c];
    // no puede accederse a tablero[f][c]
    // ya que algn ndice puede ser negativo

    if ((f < DIM) && (f >= 0) && (c < DIM) && (c >= 0) && (tablero[f][c] != CASILLA_VACIA))
 c0019a4:	e3530007 	cmp	r3, #7
 c0019a8:	93520007 	cmpls	r2, #7
 c0019ac:	83a0c000 	movhi	ip, #0
 c0019b0:	93a0c001 	movls	ip, #1
        ficha = tablero[f][c];
    }
    else
    {
        *posicion_valida = 0;
        ficha = CASILLA_VACIA;
 c0019b4:	81a0000c 	movhi	r0, ip
//    printf("%c, %c, %i",f, c, *posicion_valida);
    // ficha = tablero[f][c];
    // no puede accederse a tablero[f][c]
    // ya que algn ndice puede ser negativo

    if ((f < DIM) && (f >= 0) && (c < DIM) && (c >= 0) && (tablero[f][c] != CASILLA_VACIA))
 c0019b8:	8a000004 	bhi	c0019d0 <elegir_mov+0xd4>
 c0019bc:	e0810182 	add	r0, r1, r2, lsl #3
 c0019c0:	e7d00003 	ldrb	r0, [r0, r3]
    {
        *posicion_valida = 1;
 c0019c4:	e3500000 	cmp	r0, #0
 c0019c8:	01a0c000 	moveq	ip, r0
 c0019cc:	13a0c001 	movne	ip, #1
//    printf("%c, %c, %i",f, c, *posicion_valida);
    // ficha = tablero[f][c];
    // no puede accederse a tablero[f][c]
    // ya que algn ndice puede ser negativo

    if ((f < DIM) && (f >= 0) && (c < DIM) && (c >= 0) && (tablero[f][c] != CASILLA_VACIA))
 c0019d0:	e0834005 	add	r4, r3, r5
 c0019d4:	e082a006 	add	sl, r2, r6
 c0019d8:	e20430ff 	and	r3, r4, #255	; 0xff
 c0019dc:	e20a20ff 	and	r2, sl, #255	; 0xff
    {
        *posicion_valida = 1;
 c0019e0:	e3a04000 	mov	r4, #0
 c0019e4:	ea00000f 	b	c001a28 <elegir_mov+0x12c>
//    printf("%c, %c, %i",f, c, *posicion_valida);
    // ficha = tablero[f][c];
    // no puede accederse a tablero[f][c]
    // ya que algn ndice puede ser negativo

    if ((f < DIM) && (f >= 0) && (c < DIM) && (c >= 0) && (tablero[f][c] != CASILLA_VACIA))
 c0019e8:	e3530007 	cmp	r3, #7
 c0019ec:	93520007 	cmpls	r2, #7
 c0019f0:	83a0c000 	movhi	ip, #0
 c0019f4:	93a0c001 	movls	ip, #1
	// mientras la casilla est en el tablero, no est vaca,
	// y es del color rival seguimos buscando el patron de volteo
	{
		FA = FA + SF;
		CA = CA + SC;
		*longitud = *longitud + 1;
 c0019f8:	e2844001 	add	r4, r4, #1
        ficha = tablero[f][c];
    }
    else
    {
        *posicion_valida = 0;
        ficha = CASILLA_VACIA;
 c0019fc:	81a0000c 	movhi	r0, ip
//    printf("%c, %c, %i",f, c, *posicion_valida);
    // ficha = tablero[f][c];
    // no puede accederse a tablero[f][c]
    // ya que algn ndice puede ser negativo

    if ((f < DIM) && (f >= 0) && (c < DIM) && (c >= 0) && (tablero[f][c] != CASILLA_VACIA))
 c001a00:	8a000004 	bhi	c001a18 <elegir_mov+0x11c>
 c001a04:	e081c182 	add	ip, r1, r2, lsl #3
 c001a08:	e7dc0003 	ldrb	r0, [ip, r3]
    {
        *posicion_valida = 1;
 c001a0c:	e3500000 	cmp	r0, #0
 c001a10:	01a0c000 	moveq	ip, r0
 c001a14:	13a0c001 	movne	ip, #1
//    printf("%c, %c, %i",f, c, *posicion_valida);
    // ficha = tablero[f][c];
    // no puede accederse a tablero[f][c]
    // ya que algn ndice puede ser negativo

    if ((f < DIM) && (f >= 0) && (c < DIM) && (c >= 0) && (tablero[f][c] != CASILLA_VACIA))
 c001a18:	e0822006 	add	r2, r2, r6
 c001a1c:	e0833005 	add	r3, r3, r5
 c001a20:	e20220ff 	and	r2, r2, #255	; 0xff
 c001a24:	e20330ff 	and	r3, r3, #255	; 0xff
	char casilla;   // casilla es la casilla que se lee del tablerotes();

	FA = FA + SF;
	CA = CA + SC;
	casilla = ficha_valida(tablero, FA, CA, &posicion_valida);
	while ((posicion_valida == 1) && (casilla != color))
 c001a28:	e20cc0ff 	and	ip, ip, #255	; 0xff
 c001a2c:	e3500001 	cmp	r0, #1
 c001a30:	03a0a000 	moveq	sl, #0
 c001a34:	120ca001 	andne	sl, ip, #1
 c001a38:	e35a0000 	cmp	sl, #0
 c001a3c:	1affffe9 	bne	c0019e8 <elegir_mov+0xec>
		*longitud = *longitud + 1;
		casilla = ficha_valida(tablero, FA, CA, &posicion_valida);
	}
    // si la ultima posicin era vlida y la ficha es del jugador actual,
    // entonces hemos encontrado el patrn
	if ((posicion_valida == 1) && (casilla == color) && (*longitud >0)) {
 c001a40:	e3500001 	cmp	r0, #1
 c001a44:	13a0c000 	movne	ip, #0
 c001a48:	020cc001 	andeq	ip, ip, #1
 c001a4c:	e35c0000 	cmp	ip, #0
 c001a50:	0a000022 	beq	c001ae0 <elegir_mov+0x1e4>
 c001a54:	e3540000 	cmp	r4, #0
 c001a58:	0a000020 	beq	c001ae0 <elegir_mov+0x1e4>
                        patron = patron_volteo(tablero, &longitud, i, j, SF, SC, FICHA_BLANCA);
                        //  //printf("%d ", patron);
                        if (patron == PATRON_ENCONTRADO)
                        {
                            found = 1;
                            if (tabla_valor[i][j] > mejor)
 c001a5c:	e5d93000 	ldrb	r3, [r9]
 c001a60:	e59d0010 	ldr	r0, [sp, #16]
 c001a64:	e1530000 	cmp	r3, r0
 c001a68:	9affffb5 	bls	c001944 <elegir_mov+0x48>
 c001a6c:	e58d801c 	str	r8, [sp, #28]
 c001a70:	e59dc00c 	ldr	ip, [sp, #12]

    // Recorremos todo el tablero comprobando dnde podemos mover
    // Comparamos la puntuacin de los movimientos encontrados y nos quedamos con el mejor
    for (i=0; i<DIM; i++)
    {
        for (j=0; j<DIM; j++)
 c001a74:	e2888001 	add	r8, r8, #1
 c001a78:	e3580008 	cmp	r8, #8
                        patron = patron_volteo(tablero, &longitud, i, j, SF, SC, FICHA_BLANCA);
                        //  //printf("%d ", patron);
                        if (patron == PATRON_ENCONTRADO)
                        {
                            found = 1;
                            if (tabla_valor[i][j] > mejor)
 c001a7c:	e58d3010 	str	r3, [sp, #16]
 c001a80:	e58dc018 	str	ip, [sp, #24]

    // Recorremos todo el tablero comprobando dnde podemos mover
    // Comparamos la puntuacin de los movimientos encontrados y nos quedamos con el mejor
    for (i=0; i<DIM; i++)
    {
        for (j=0; j<DIM; j++)
 c001a84:	e2899001 	add	r9, r9, #1
 c001a88:	1affffb1 	bne	c001954 <elegir_mov+0x58>
    int patron, longitud;
    char SF, SC; // cantidades a sumar para movernos en la direccin que toque

    // Recorremos todo el tablero comprobando dnde podemos mover
    // Comparamos la puntuacin de los movimientos encontrados y nos quedamos con el mejor
    for (i=0; i<DIM; i++)
 c001a8c:	e59d300c 	ldr	r3, [sp, #12]
 c001a90:	e59d2000 	ldr	r2, [sp]
 c001a94:	e59d0014 	ldr	r0, [sp, #20]
 c001a98:	e2833001 	add	r3, r3, #1
 c001a9c:	e282c008 	add	ip, r2, #8
 c001aa0:	e3530008 	cmp	r3, #8
 c001aa4:	e2802008 	add	r2, r0, #8
 c001aa8:	e58d300c 	str	r3, [sp, #12]
 c001aac:	e58dc000 	str	ip, [sp]
 c001ab0:	e58d2014 	str	r2, [sp, #20]
 c001ab4:	1affff9c 	bne	c00192c <elegir_mov+0x30>
                    }
                }
            }
        }
    }
    *f = (char) mf;
 c001ab8:	e59d3018 	ldr	r3, [sp, #24]
 c001abc:	e59d2020 	ldr	r2, [sp, #32]
 c001ac0:	e5c23000 	strb	r3, [r2]
    *c = (char) mc;
 c001ac4:	e59d101c 	ldr	r1, [sp, #28]
 c001ac8:	e59dc024 	ldr	ip, [sp, #36]	; 0x24
    // si no se ha encontrado una posicin vlida devuelve -1
    return mf;
}
 c001acc:	e59d0018 	ldr	r0, [sp, #24]
                }
            }
        }
    }
    *f = (char) mf;
    *c = (char) mc;
 c001ad0:	e5cc1000 	strb	r1, [ip]
    // si no se ha encontrado una posicin vlida devuelve -1
    return mf;
}
 c001ad4:	e28dd02c 	add	sp, sp, #44	; 0x2c
 c001ad8:	e8bd07f0 	pop	{r4, r5, r6, r7, r8, r9, sl}
 c001adc:	e12fff1e 	bx	lr
                                mf = i;
                                mc = j;
                                mejor = tabla_valor[i][j];
                            }
                        }
                        k++;
 c001ae0:	e2877001 	add	r7, r7, #1
                    found = 0;
                    k = 0;

                    // en este bucle comprobamos si es un movimiento vlido
                    // (es decir si implica voltear en alguna direccin)
                    while ((found == 0) && (k < DIM))
 c001ae4:	e3570008 	cmp	r7, #8
 c001ae8:	1affffa3 	bne	c00197c <elegir_mov+0x80>
 c001aec:	eaffff94 	b	c001944 <elegir_mov+0x48>
 c001af0:	0c0031a0 	.word	0x0c0031a0
 c001af4:	0c003190 	.word	0x0c003190

0c001af8 <contar>:
// Los guarda en la direccin b (blancas) y n (negras)
void contar(char tablero[][DIM], int *b, int *n)
{
    int i,j;

    *b = 0;
 c001af8:	e3a03000 	mov	r3, #0
 c001afc:	e5813000 	str	r3, [r1]
    return mf;
}
////////////////////////////////////////////////////////////////////////////////
// Cuenta el nmero de fichas de cada color.
// Los guarda en la direccin b (blancas) y n (negras)
void contar(char tablero[][DIM], int *b, int *n)
 c001b00:	e280c040 	add	ip, r0, #64	; 0x40
{
    int i,j;

    *b = 0;
    *n = 0;
 c001b04:	e5823000 	str	r3, [r2]
 c001b08:	ea000027 	b	c001bac <contar+0xb4>
        {
            if (tablero[i][j] == FICHA_BLANCA)
            {
                (*b)++;
            }
            else if (tablero[i][j] == FICHA_NEGRA)
 c001b0c:	e3530002 	cmp	r3, #2
 c001b10:	0a000059 	beq	c001c7c <contar+0x184>
    // recorremos todo el tablero contando las fichas de cada color
    for (i=0; i<DIM; i++)
    {
        for (j=0; j<DIM; j++)
        {
            if (tablero[i][j] == FICHA_BLANCA)
 c001b14:	e5d03001 	ldrb	r3, [r0, #1]
 c001b18:	e3530001 	cmp	r3, #1
 c001b1c:	0a00002b 	beq	c001bd0 <contar+0xd8>
            {
                (*b)++;
            }
            else if (tablero[i][j] == FICHA_NEGRA)
 c001b20:	e3530002 	cmp	r3, #2
 c001b24:	0a000064 	beq	c001cbc <contar+0x1c4>
    // recorremos todo el tablero contando las fichas de cada color
    for (i=0; i<DIM; i++)
    {
        for (j=0; j<DIM; j++)
        {
            if (tablero[i][j] == FICHA_BLANCA)
 c001b28:	e5d03002 	ldrb	r3, [r0, #2]
 c001b2c:	e3530001 	cmp	r3, #1
 c001b30:	0a00002c 	beq	c001be8 <contar+0xf0>
            {
                (*b)++;
            }
            else if (tablero[i][j] == FICHA_NEGRA)
 c001b34:	e3530002 	cmp	r3, #2
 c001b38:	0a00005b 	beq	c001cac <contar+0x1b4>
    // recorremos todo el tablero contando las fichas de cada color
    for (i=0; i<DIM; i++)
    {
        for (j=0; j<DIM; j++)
        {
            if (tablero[i][j] == FICHA_BLANCA)
 c001b3c:	e5d03003 	ldrb	r3, [r0, #3]
 c001b40:	e3530001 	cmp	r3, #1
 c001b44:	0a00002d 	beq	c001c00 <contar+0x108>
            {
                (*b)++;
            }
            else if (tablero[i][j] == FICHA_NEGRA)
 c001b48:	e3530002 	cmp	r3, #2
 c001b4c:	0a000052 	beq	c001c9c <contar+0x1a4>
    // recorremos todo el tablero contando las fichas de cada color
    for (i=0; i<DIM; i++)
    {
        for (j=0; j<DIM; j++)
        {
            if (tablero[i][j] == FICHA_BLANCA)
 c001b50:	e5d03004 	ldrb	r3, [r0, #4]
 c001b54:	e3530001 	cmp	r3, #1
 c001b58:	0a00002e 	beq	c001c18 <contar+0x120>
            {
                (*b)++;
            }
            else if (tablero[i][j] == FICHA_NEGRA)
 c001b5c:	e3530002 	cmp	r3, #2
 c001b60:	0a000049 	beq	c001c8c <contar+0x194>
    // recorremos todo el tablero contando las fichas de cada color
    for (i=0; i<DIM; i++)
    {
        for (j=0; j<DIM; j++)
        {
            if (tablero[i][j] == FICHA_BLANCA)
 c001b64:	e5d03005 	ldrb	r3, [r0, #5]
 c001b68:	e3530001 	cmp	r3, #1
 c001b6c:	0a00002f 	beq	c001c30 <contar+0x138>
            {
                (*b)++;
            }
            else if (tablero[i][j] == FICHA_NEGRA)
 c001b70:	e3530002 	cmp	r3, #2
 c001b74:	0a00005c 	beq	c001cec <contar+0x1f4>
    // recorremos todo el tablero contando las fichas de cada color
    for (i=0; i<DIM; i++)
    {
        for (j=0; j<DIM; j++)
        {
            if (tablero[i][j] == FICHA_BLANCA)
 c001b78:	e5d03006 	ldrb	r3, [r0, #6]
 c001b7c:	e3530001 	cmp	r3, #1
 c001b80:	0a000030 	beq	c001c48 <contar+0x150>
            {
                (*b)++;
            }
            else if (tablero[i][j] == FICHA_NEGRA)
 c001b84:	e3530002 	cmp	r3, #2
 c001b88:	0a000053 	beq	c001cdc <contar+0x1e4>
    // recorremos todo el tablero contando las fichas de cada color
    for (i=0; i<DIM; i++)
    {
        for (j=0; j<DIM; j++)
        {
            if (tablero[i][j] == FICHA_BLANCA)
 c001b8c:	e5d03007 	ldrb	r3, [r0, #7]
 c001b90:	e3530001 	cmp	r3, #1
 c001b94:	0a000031 	beq	c001c60 <contar+0x168>
            {
                (*b)++;
            }
            else if (tablero[i][j] == FICHA_NEGRA)
 c001b98:	e3530002 	cmp	r3, #2
 c001b9c:	0a00004a 	beq	c001ccc <contar+0x1d4>
    {
        for (j=0; j<DIM; j++)
        {
            if (tablero[i][j] == FICHA_BLANCA)
            {
                (*b)++;
 c001ba0:	e2800008 	add	r0, r0, #8

    *b = 0;
    *n = 0;

    // recorremos todo el tablero contando las fichas de cada color
    for (i=0; i<DIM; i++)
 c001ba4:	e150000c 	cmp	r0, ip
 c001ba8:	0a000032 	beq	c001c78 <contar+0x180>
    {
        for (j=0; j<DIM; j++)
        {
            if (tablero[i][j] == FICHA_BLANCA)
 c001bac:	e5d03000 	ldrb	r3, [r0]
 c001bb0:	e3530001 	cmp	r3, #1
 c001bb4:	1affffd4 	bne	c001b0c <contar+0x14>
            {
                (*b)++;
 c001bb8:	e5913000 	ldr	r3, [r1]
 c001bbc:	e2833001 	add	r3, r3, #1
 c001bc0:	e5813000 	str	r3, [r1]
    // recorremos todo el tablero contando las fichas de cada color
    for (i=0; i<DIM; i++)
    {
        for (j=0; j<DIM; j++)
        {
            if (tablero[i][j] == FICHA_BLANCA)
 c001bc4:	e5d03001 	ldrb	r3, [r0, #1]
 c001bc8:	e3530001 	cmp	r3, #1
 c001bcc:	1affffd3 	bne	c001b20 <contar+0x28>
            {
                (*b)++;
 c001bd0:	e5913000 	ldr	r3, [r1]
 c001bd4:	e2833001 	add	r3, r3, #1
 c001bd8:	e5813000 	str	r3, [r1]
    // recorremos todo el tablero contando las fichas de cada color
    for (i=0; i<DIM; i++)
    {
        for (j=0; j<DIM; j++)
        {
            if (tablero[i][j] == FICHA_BLANCA)
 c001bdc:	e5d03002 	ldrb	r3, [r0, #2]
 c001be0:	e3530001 	cmp	r3, #1
 c001be4:	1affffd2 	bne	c001b34 <contar+0x3c>
            {
                (*b)++;
 c001be8:	e5913000 	ldr	r3, [r1]
 c001bec:	e2833001 	add	r3, r3, #1
 c001bf0:	e5813000 	str	r3, [r1]
    // recorremos todo el tablero contando las fichas de cada color
    for (i=0; i<DIM; i++)
    {
        for (j=0; j<DIM; j++)
        {
            if (tablero[i][j] == FICHA_BLANCA)
 c001bf4:	e5d03003 	ldrb	r3, [r0, #3]
 c001bf8:	e3530001 	cmp	r3, #1
 c001bfc:	1affffd1 	bne	c001b48 <contar+0x50>
            {
                (*b)++;
 c001c00:	e5913000 	ldr	r3, [r1]
 c001c04:	e2833001 	add	r3, r3, #1
 c001c08:	e5813000 	str	r3, [r1]
    // recorremos todo el tablero contando las fichas de cada color
    for (i=0; i<DIM; i++)
    {
        for (j=0; j<DIM; j++)
        {
            if (tablero[i][j] == FICHA_BLANCA)
 c001c0c:	e5d03004 	ldrb	r3, [r0, #4]
 c001c10:	e3530001 	cmp	r3, #1
 c001c14:	1affffd0 	bne	c001b5c <contar+0x64>
            {
                (*b)++;
 c001c18:	e5913000 	ldr	r3, [r1]
 c001c1c:	e2833001 	add	r3, r3, #1
 c001c20:	e5813000 	str	r3, [r1]
    // recorremos todo el tablero contando las fichas de cada color
    for (i=0; i<DIM; i++)
    {
        for (j=0; j<DIM; j++)
        {
            if (tablero[i][j] == FICHA_BLANCA)
 c001c24:	e5d03005 	ldrb	r3, [r0, #5]
 c001c28:	e3530001 	cmp	r3, #1
 c001c2c:	1affffcf 	bne	c001b70 <contar+0x78>
            {
                (*b)++;
 c001c30:	e5913000 	ldr	r3, [r1]
 c001c34:	e2833001 	add	r3, r3, #1
 c001c38:	e5813000 	str	r3, [r1]
    // recorremos todo el tablero contando las fichas de cada color
    for (i=0; i<DIM; i++)
    {
        for (j=0; j<DIM; j++)
        {
            if (tablero[i][j] == FICHA_BLANCA)
 c001c3c:	e5d03006 	ldrb	r3, [r0, #6]
 c001c40:	e3530001 	cmp	r3, #1
 c001c44:	1affffce 	bne	c001b84 <contar+0x8c>
            {
                (*b)++;
 c001c48:	e5913000 	ldr	r3, [r1]
 c001c4c:	e2833001 	add	r3, r3, #1
 c001c50:	e5813000 	str	r3, [r1]
    // recorremos todo el tablero contando las fichas de cada color
    for (i=0; i<DIM; i++)
    {
        for (j=0; j<DIM; j++)
        {
            if (tablero[i][j] == FICHA_BLANCA)
 c001c54:	e5d03007 	ldrb	r3, [r0, #7]
 c001c58:	e3530001 	cmp	r3, #1
 c001c5c:	1affffcd 	bne	c001b98 <contar+0xa0>
            {
                (*b)++;
 c001c60:	e5913000 	ldr	r3, [r1]
 c001c64:	e2800008 	add	r0, r0, #8
 c001c68:	e2833001 	add	r3, r3, #1

    *b = 0;
    *n = 0;

    // recorremos todo el tablero contando las fichas de cada color
    for (i=0; i<DIM; i++)
 c001c6c:	e150000c 	cmp	r0, ip
    {
        for (j=0; j<DIM; j++)
        {
            if (tablero[i][j] == FICHA_BLANCA)
            {
                (*b)++;
 c001c70:	e5813000 	str	r3, [r1]

    *b = 0;
    *n = 0;

    // recorremos todo el tablero contando las fichas de cada color
    for (i=0; i<DIM; i++)
 c001c74:	1affffcc 	bne	c001bac <contar+0xb4>
            {
                (*n)++;
            }
        }
    }
}
 c001c78:	e12fff1e 	bx	lr
            {
                (*b)++;
            }
            else if (tablero[i][j] == FICHA_NEGRA)
            {
                (*n)++;
 c001c7c:	e5923000 	ldr	r3, [r2]
 c001c80:	e2833001 	add	r3, r3, #1
 c001c84:	e5823000 	str	r3, [r2]
 c001c88:	eaffffa1 	b	c001b14 <contar+0x1c>
 c001c8c:	e5923000 	ldr	r3, [r2]
 c001c90:	e2833001 	add	r3, r3, #1
 c001c94:	e5823000 	str	r3, [r2]
 c001c98:	eaffffb1 	b	c001b64 <contar+0x6c>
 c001c9c:	e5923000 	ldr	r3, [r2]
 c001ca0:	e2833001 	add	r3, r3, #1
 c001ca4:	e5823000 	str	r3, [r2]
 c001ca8:	eaffffa8 	b	c001b50 <contar+0x58>
 c001cac:	e5923000 	ldr	r3, [r2]
 c001cb0:	e2833001 	add	r3, r3, #1
 c001cb4:	e5823000 	str	r3, [r2]
 c001cb8:	eaffff9f 	b	c001b3c <contar+0x44>
 c001cbc:	e5923000 	ldr	r3, [r2]
 c001cc0:	e2833001 	add	r3, r3, #1
 c001cc4:	e5823000 	str	r3, [r2]
 c001cc8:	eaffff96 	b	c001b28 <contar+0x30>
 c001ccc:	e5923000 	ldr	r3, [r2]
 c001cd0:	e2833001 	add	r3, r3, #1
 c001cd4:	e5823000 	str	r3, [r2]
 c001cd8:	eaffffb0 	b	c001ba0 <contar+0xa8>
 c001cdc:	e5923000 	ldr	r3, [r2]
 c001ce0:	e2833001 	add	r3, r3, #1
 c001ce4:	e5823000 	str	r3, [r2]
 c001ce8:	eaffffa7 	b	c001b8c <contar+0x94>
 c001cec:	e5923000 	ldr	r3, [r2]
 c001cf0:	e2833001 	add	r3, r3, #1
 c001cf4:	e5823000 	str	r3, [r2]
 c001cf8:	eaffff9e 	b	c001b78 <contar+0x80>

0c001cfc <actualizar_candidatas>:

void actualizar_candidatas(char candidatas[][DIM], char f, char c)
{
    // donde ya se ha colocado no se puede volver a colocar
    // En las posiciones alrededor s
    candidatas[f][c] = CASILLA_OCUPADA;
 c001cfc:	e0803181 	add	r3, r0, r1, lsl #3
 c001d00:	e3a0c002 	mov	ip, #2
    if (f > 0)
 c001d04:	e3510000 	cmp	r1, #0
        }
    }
}

void actualizar_candidatas(char candidatas[][DIM], char f, char c)
{
 c001d08:	e92d0030 	push	{r4, r5}
    // donde ya se ha colocado no se puede volver a colocar
    // En las posiciones alrededor s
    candidatas[f][c] = CASILLA_OCUPADA;
 c001d0c:	e7c3c002 	strb	ip, [r3, r2]
    if (f > 0)
 c001d10:	0a00000e 	beq	c001d50 <actualizar_candidatas+0x54>
    {
        if (candidatas[f-1][c] != CASILLA_OCUPADA)
 c001d14:	e2415001 	sub	r5, r1, #1
 c001d18:	e080c185 	add	ip, r0, r5, lsl #3
 c001d1c:	e7dc4002 	ldrb	r4, [ip, r2]
 c001d20:	e3540002 	cmp	r4, #2
            candidatas[f-1][c] = SI;
 c001d24:	13a04001 	movne	r4, #1
 c001d28:	17cc4002 	strbne	r4, [ip, r2]

        if ((c > 0) && (candidatas[f-1][c-1] != CASILLA_OCUPADA))
 c001d2c:	e3520000 	cmp	r2, #0
 c001d30:	1a00002a 	bne	c001de0 <actualizar_candidatas+0xe4>
            candidatas[f-1][c-1] = SI;

        if ((c < 7) && (candidatas[f-1][c+1] != CASILLA_OCUPADA))
 c001d34:	e2824001 	add	r4, r2, #1
 c001d38:	e7dc5004 	ldrb	r5, [ip, r4]
 c001d3c:	e3550002 	cmp	r5, #2
            candidatas[f-1][c+1] = SI;
 c001d40:	13a05001 	movne	r5, #1
 c001d44:	17cc5004 	strbne	r5, [ip, r4]
    }
    if (f < 7)
 c001d48:	e3510006 	cmp	r1, #6
 c001d4c:	8a00000c 	bhi	c001d84 <actualizar_candidatas+0x88>
    {
        if (candidatas[f+1][c] != CASILLA_OCUPADA)
 c001d50:	e281c001 	add	ip, r1, #1
 c001d54:	e080018c 	add	r0, r0, ip, lsl #3
 c001d58:	e7d01002 	ldrb	r1, [r0, r2]
 c001d5c:	e3510002 	cmp	r1, #2
            candidatas[f+1][c] = SI;
 c001d60:	13a01001 	movne	r1, #1
 c001d64:	17c01002 	strbne	r1, [r0, r2]

        if ((c > 0) && (candidatas[f+1][c-1] != CASILLA_OCUPADA))
 c001d68:	e3520000 	cmp	r2, #0
 c001d6c:	1a00000d 	bne	c001da8 <actualizar_candidatas+0xac>
            candidatas[f+1][c-1] = SI;

        if ((c < 7) && (candidatas[f+1][c+1] != CASILLA_OCUPADA))
 c001d70:	e2821001 	add	r1, r2, #1
 c001d74:	e7d0c001 	ldrb	ip, [r0, r1]
 c001d78:	e35c0002 	cmp	ip, #2
            candidatas[f+1][c+1] = SI;
 c001d7c:	13a0c001 	movne	ip, #1
 c001d80:	17c0c001 	strbne	ip, [r0, r1]
    }
    if ((c > 0) && (candidatas[f][c-1] != CASILLA_OCUPADA))
 c001d84:	e3520000 	cmp	r2, #0
 c001d88:	1a00001c 	bne	c001e00 <actualizar_candidatas+0x104>
        candidatas[f][c-1] = SI;

    if ((c < 7) && (candidatas[f][c+1] != CASILLA_OCUPADA))
 c001d8c:	e2822001 	add	r2, r2, #1
 c001d90:	e7d31002 	ldrb	r1, [r3, r2]
 c001d94:	e3510002 	cmp	r1, #2
        candidatas[f][c+1] = SI;
 c001d98:	13a01001 	movne	r1, #1
 c001d9c:	17c31002 	strbne	r1, [r3, r2]
}
 c001da0:	e8bd0030 	pop	{r4, r5}
 c001da4:	e12fff1e 	bx	lr
    if (f < 7)
    {
        if (candidatas[f+1][c] != CASILLA_OCUPADA)
            candidatas[f+1][c] = SI;

        if ((c > 0) && (candidatas[f+1][c-1] != CASILLA_OCUPADA))
 c001da8:	e2421001 	sub	r1, r2, #1
 c001dac:	e7d0c001 	ldrb	ip, [r0, r1]
 c001db0:	e35c0002 	cmp	ip, #2
            candidatas[f+1][c-1] = SI;
 c001db4:	13a0c001 	movne	ip, #1
 c001db8:	17c0c001 	strbne	ip, [r0, r1]

        if ((c < 7) && (candidatas[f+1][c+1] != CASILLA_OCUPADA))
 c001dbc:	e3520006 	cmp	r2, #6
 c001dc0:	9affffea 	bls	c001d70 <actualizar_candidatas+0x74>
            candidatas[f+1][c+1] = SI;
    }
    if ((c > 0) && (candidatas[f][c-1] != CASILLA_OCUPADA))
 c001dc4:	e7d30001 	ldrb	r0, [r3, r1]
 c001dc8:	e3500002 	cmp	r0, #2
        candidatas[f][c-1] = SI;
 c001dcc:	13a00001 	movne	r0, #1
 c001dd0:	17c30001 	strbne	r0, [r3, r1]

    if ((c < 7) && (candidatas[f][c+1] != CASILLA_OCUPADA))
 c001dd4:	e3520006 	cmp	r2, #6
 c001dd8:	8afffff0 	bhi	c001da0 <actualizar_candidatas+0xa4>
 c001ddc:	eaffffea 	b	c001d8c <actualizar_candidatas+0x90>
    if (f > 0)
    {
        if (candidatas[f-1][c] != CASILLA_OCUPADA)
            candidatas[f-1][c] = SI;

        if ((c > 0) && (candidatas[f-1][c-1] != CASILLA_OCUPADA))
 c001de0:	e2424001 	sub	r4, r2, #1
 c001de4:	e7dc5004 	ldrb	r5, [ip, r4]
 c001de8:	e3550002 	cmp	r5, #2
            candidatas[f-1][c-1] = SI;
 c001dec:	13a05001 	movne	r5, #1
 c001df0:	17cc5004 	strbne	r5, [ip, r4]

        if ((c < 7) && (candidatas[f-1][c+1] != CASILLA_OCUPADA))
 c001df4:	e3520006 	cmp	r2, #6
 c001df8:	8affffd2 	bhi	c001d48 <actualizar_candidatas+0x4c>
 c001dfc:	eaffffcc 	b	c001d34 <actualizar_candidatas+0x38>
            candidatas[f+1][c-1] = SI;

        if ((c < 7) && (candidatas[f+1][c+1] != CASILLA_OCUPADA))
            candidatas[f+1][c+1] = SI;
    }
    if ((c > 0) && (candidatas[f][c-1] != CASILLA_OCUPADA))
 c001e00:	e2421001 	sub	r1, r2, #1
 c001e04:	eaffffee 	b	c001dc4 <actualizar_candidatas+0xc8>

0c001e08 <reversi8>:
// la razn es que al meterlas en la pila no las pone juntas, y as jugar es ms complicado.
// en esta versin el humano lleva negras y la mquina blancas
// no se comprueba que el humano mueva correctamente.
// Slo que la mquina realice un movimiento correcto.
void reversi8()
{
 c001e08:	e1a0c00d 	mov	ip, sp
 c001e0c:	e92ddff0 	push	{r4, r5, r6, r7, r8, r9, sl, fp, ip, lr, pc}
 c001e10:	e24cb004 	sub	fp, ip, #4
 c001e14:	e24dd074 	sub	sp, sp, #116	; 0x74
    int blancas, negras; // nmero de fichas de cada color
    int fin = 0;  // fin vale 1 si el humano no ha podido mover
                  // (ha introducido un valor de movimiento con algn 8)
                  // y luego la mquina tampoco puede
    char f, c;    // fila y columna elegidas por la mquina para su movimiento
    volatile int tiempo = 0; // Para medidas de tiempo. Con volatile para que no se lo coma
 c001e18:	e59f438c 	ldr	r4, [pc, #908]	; c0021ac <reversi8+0x3a4>

	 ////////////////////////////////////////////////////////////////////
	 // Tablero candidatas: se usa para no explorar todas las posiciones del tablero
	// slo se exploran las que estn alrededor de las fichas colocadas
	 ////////////////////////////////////////////////////////////////////
	char __attribute__ ((aligned (8))) candidatas[DIM][DIM] =
 c001e1c:	e3a01000 	mov	r1, #0
 c001e20:	e3a02040 	mov	r2, #64	; 0x40
 c001e24:	e24b0074 	sub	r0, fp, #116	; 0x74
 c001e28:	eb000481 	bl	c003034 <memset>
    int blancas, negras; // nmero de fichas de cada color
    int fin = 0;  // fin vale 1 si el humano no ha podido mover
                  // (ha introducido un valor de movimiento con algn 8)
                  // y luego la mquina tampoco puede
    char f, c;    // fila y columna elegidas por la mquina para su movimiento
    volatile int tiempo = 0; // Para medidas de tiempo. Con volatile para que no se lo coma
 c001e2c:	e3a03000 	mov	r3, #0
	    }
	}
    }
#endif
    // arriba hay versin alternativa
    tablero[3][3] = FICHA_BLANCA;
 c001e30:	e3a02001 	mov	r2, #1
    tablero[4][4] = FICHA_BLANCA;
    tablero[3][4] = FICHA_NEGRA;
 c001e34:	e3a01002 	mov	r1, #2
    int i, j;

    for (i = 0; i < DIM; i++)
    {
        for (j = 0; j < DIM; j++)
            tablero[i][j] = CASILLA_VACIA;
 c001e38:	e5843020 	str	r3, [r4, #32]
 c001e3c:	e5843024 	str	r3, [r4, #36]	; 0x24
 c001e40:	e5843028 	str	r3, [r4, #40]	; 0x28
 c001e44:	e584302c 	str	r3, [r4, #44]	; 0x2c
    int blancas, negras; // nmero de fichas de cada color
    int fin = 0;  // fin vale 1 si el humano no ha podido mover
                  // (ha introducido un valor de movimiento con algn 8)
                  // y luego la mquina tampoco puede
    char f, c;    // fila y columna elegidas por la mquina para su movimiento
    volatile int tiempo = 0; // Para medidas de tiempo. Con volatile para que no se lo coma
 c001e48:	e50b3030 	str	r3, [fp, #-48]	; 0xffffffd0
    int i, j;

    for (i = 0; i < DIM; i++)
    {
        for (j = 0; j < DIM; j++)
            tablero[i][j] = CASILLA_VACIA;
 c001e4c:	e5843008 	str	r3, [r4, #8]
 c001e50:	e584300c 	str	r3, [r4, #12]
 c001e54:	e5843010 	str	r3, [r4, #16]
 c001e58:	e5843014 	str	r3, [r4, #20]
 c001e5c:	e5843018 	str	r3, [r4, #24]
 c001e60:	e584301c 	str	r3, [r4, #28]
 c001e64:	e5843030 	str	r3, [r4, #48]	; 0x30
 c001e68:	e5843034 	str	r3, [r4, #52]	; 0x34
 c001e6c:	e5843038 	str	r3, [r4, #56]	; 0x38
 c001e70:	e584303c 	str	r3, [r4, #60]	; 0x3c
 c001e74:	e5843040 	str	r3, [r4, #64]	; 0x40
 c001e78:	e5843044 	str	r3, [r4, #68]	; 0x44
	    }
	}
    }
#endif
    // arriba hay versin alternativa
    tablero[3][3] = FICHA_BLANCA;
 c001e7c:	e5c42023 	strb	r2, [r4, #35]	; 0x23
    tablero[4][4] = FICHA_BLANCA;
 c001e80:	e5c4202c 	strb	r2, [r4, #44]	; 0x2c
    tablero[3][4] = FICHA_NEGRA;
 c001e84:	e5c41024 	strb	r1, [r4, #36]	; 0x24
    tablero[4][3] = FICHA_NEGRA;
 c001e88:	e5c4102b 	strb	r1, [r4, #43]	; 0x2b

    candidatas[3][3] = CASILLA_OCUPADA;
 c001e8c:	e54b1059 	strb	r1, [fp, #-89]	; 0xffffffa7
    candidatas[4][4] = CASILLA_OCUPADA;
 c001e90:	e54b1050 	strb	r1, [fp, #-80]	; 0xffffffb0
    candidatas[3][4] = CASILLA_OCUPADA;
 c001e94:	e54b1058 	strb	r1, [fp, #-88]	; 0xffffffa8
    candidatas[4][3] = CASILLA_OCUPADA;
 c001e98:	e54b1051 	strb	r1, [fp, #-81]	; 0xffffffaf

    // casillas a explorar:
    candidatas[2][2] = SI;
 c001e9c:	e54b2062 	strb	r2, [fp, #-98]	; 0xffffff9e
    candidatas[2][3] = SI;
 c001ea0:	e54b2061 	strb	r2, [fp, #-97]	; 0xffffff9f
    candidatas[2][4] = SI;
 c001ea4:	e54b2060 	strb	r2, [fp, #-96]	; 0xffffffa0
    candidatas[2][5] = SI;
 c001ea8:	e54b205f 	strb	r2, [fp, #-95]	; 0xffffffa1
    candidatas[3][2] = SI;
 c001eac:	e54b205a 	strb	r2, [fp, #-90]	; 0xffffffa6
    candidatas[3][5] = SI;
 c001eb0:	e54b2057 	strb	r2, [fp, #-87]	; 0xffffffa9
    candidatas[4][2] = SI;
 c001eb4:	e54b2052 	strb	r2, [fp, #-82]	; 0xffffffae
    candidatas[4][5] = SI;
 c001eb8:	e54b204f 	strb	r2, [fp, #-79]	; 0xffffffb1
    candidatas[5][2] = SI;
 c001ebc:	e54b204a 	strb	r2, [fp, #-74]	; 0xffffffb6
    candidatas[5][3] = SI;
 c001ec0:	e54b2049 	strb	r2, [fp, #-73]	; 0xffffffb7
    candidatas[5][4] = SI;
 c001ec4:	e54b2048 	strb	r2, [fp, #-72]	; 0xffffffb8
    candidatas[5][5] = SI;
 c001ec8:	e54b2047 	strb	r2, [fp, #-71]	; 0xffffffb9
// Hay que definirla como "volatile" para forzar a que antes de cada uso la cargue de memoria

void esperar_mov(char *ready)
{

	autoasignar();
 c001ecc:	ebfffc16 	bl	c000f2c <autoasignar>
    while (*ready == 0) {};  // bucle de espera de respuestas hasta que el se modifique el valor de ready (hay que hacerlo manualmente)
 c001ed0:	e5d40002 	ldrb	r0, [r4, #2]
 c001ed4:	e3500000 	cmp	r0, #0
 c001ed8:	0afffffc 	beq	c001ed0 <reversi8+0xc8>

    *ready = 0;  //una vez que pasemos el bucle volvemos a fijar ready a 0;
 c001edc:	e59f22c8 	ldr	r2, [pc, #712]	; c0021ac <reversi8+0x3a4>
 c001ee0:	e3a08000 	mov	r8, #0
 c001ee4:	e5c28002 	strb	r8, [r2, #2]
    while (fin == 0)
    {
        move = 0;
        esperar_mov(&ready);
        // si la fila o columna son 8 asumimos que el jugador no puede mover
        if (((fila) != DIM) && ((columna) != DIM))
 c001ee8:	e5d29000 	ldrb	r9, [r2]
 c001eec:	e3590008 	cmp	r9, #8

    init_table(tablero, candidatas);

    while (fin == 0)
    {
        move = 0;
 c001ef0:	03a08000 	moveq	r8, #0
 c001ef4:	050b8098 	streq	r8, [fp, #-152]	; 0xffffff68
        esperar_mov(&ready);
        // si la fila o columna son 8 asumimos que el jugador no puede mover
        if (((fila) != DIM) && ((columna) != DIM))
 c001ef8:	0a000016 	beq	c001f58 <reversi8+0x150>
 c001efc:	e5d2c001 	ldrb	ip, [r2, #1]
 c001f00:	e35c0008 	cmp	ip, #8

    init_table(tablero, candidatas);

    while (fin == 0)
    {
        move = 0;
 c001f04:	03a02000 	moveq	r2, #0
 c001f08:	050b2098 	streq	r2, [fp, #-152]	; 0xffffff68
        esperar_mov(&ready);
        // si la fila o columna son 8 asumimos que el jugador no puede mover
        if (((fila) != DIM) && ((columna) != DIM))
 c001f0c:	0a000011 	beq	c001f58 <reversi8+0x150>
        {
            tablero[fila][columna] = FICHA_NEGRA;
 c001f10:	e5d2c000 	ldrb	ip, [r2]
            actualizar_tablero(tablero, fila, columna, FICHA_NEGRA);
 c001f14:	e59f3290 	ldr	r3, [pc, #656]	; c0021ac <reversi8+0x3a4>
        move = 0;
        esperar_mov(&ready);
        // si la fila o columna son 8 asumimos que el jugador no puede mover
        if (((fila) != DIM) && ((columna) != DIM))
        {
            tablero[fila][columna] = FICHA_NEGRA;
 c001f18:	e5d22001 	ldrb	r2, [r2, #1]
 c001f1c:	e083918c 	add	r9, r3, ip, lsl #3
 c001f20:	e3a0e002 	mov	lr, #2
 c001f24:	e0898002 	add	r8, r9, r2
            actualizar_tablero(tablero, fila, columna, FICHA_NEGRA);
 c001f28:	e5d30000 	ldrb	r0, [r3]
 c001f2c:	e1a0200e 	mov	r2, lr
 c001f30:	e5d31001 	ldrb	r1, [r3, #1]
        move = 0;
        esperar_mov(&ready);
        // si la fila o columna son 8 asumimos que el jugador no puede mover
        if (((fila) != DIM) && ((columna) != DIM))
        {
            tablero[fila][columna] = FICHA_NEGRA;
 c001f34:	e5c8e008 	strb	lr, [r8, #8]
            actualizar_tablero(tablero, fila, columna, FICHA_NEGRA);
 c001f38:	ebfffc04 	bl	c000f50 <actualizar_tablero.clone.0>
            actualizar_candidatas(candidatas, fila, columna);
 c001f3c:	e59f3268 	ldr	r3, [pc, #616]	; c0021ac <reversi8+0x3a4>
 c001f40:	e24b0074 	sub	r0, fp, #116	; 0x74
 c001f44:	e5d31000 	ldrb	r1, [r3]
 c001f48:	e5d32001 	ldrb	r2, [r3, #1]
 c001f4c:	ebffff6a 	bl	c001cfc <actualizar_candidatas>
            move = 1;
 c001f50:	e3a02001 	mov	r2, #1
 c001f54:	e50b2098 	str	r2, [fp, #-152]	; 0xffffff68
        // si la fila o columna son 8 asumimos que el jugador no puede mover
        if (((fila) != DIM) && ((columna) != DIM))
        {
            tablero[fila][columna] = FICHA_NEGRA;
            actualizar_tablero(tablero, fila, columna, FICHA_NEGRA);
            actualizar_candidatas(candidatas, fila, columna);
 c001f58:	e59fe250 	ldr	lr, [pc, #592]	; c0021b0 <reversi8+0x3a8>
    int patron, longitud;
    char SF, SC; // cantidades a sumar para movernos en la direccin que toque

    // Recorremos todo el tablero comprobando dnde podemos mover
    // Comparamos la puntuacin de los movimientos encontrados y nos quedamos con el mejor
    for (i=0; i<DIM; i++)
 c001f5c:	e3a00000 	mov	r0, #0
// SI    1
// CASILLA_OCUPADA 2
int elegir_mov(char candidatas[][DIM], char tablero[][DIM], char *f, char *c)
{
    int i, j, k, found;
    int mf = -1; // almacena la fila del mejor movimiento encontrado
 c001f60:	e3e01000 	mvn	r1, #0
    int patron, longitud;
    char SF, SC; // cantidades a sumar para movernos en la direccin que toque

    // Recorremos todo el tablero comprobando dnde podemos mover
    // Comparamos la puntuacin de los movimientos encontrados y nos quedamos con el mejor
    for (i=0; i<DIM; i++)
 c001f64:	e50b0084 	str	r0, [fp, #-132]	; 0xffffff7c
        // si la fila o columna son 8 asumimos que el jugador no puede mover
        if (((fila) != DIM) && ((columna) != DIM))
        {
            tablero[fila][columna] = FICHA_NEGRA;
            actualizar_tablero(tablero, fila, columna, FICHA_NEGRA);
            actualizar_candidatas(candidatas, fila, columna);
 c001f68:	e50be088 	str	lr, [fp, #-136]	; 0xffffff78
    // no puede accederse a tablero[f][c]
    // ya que algn ndice puede ser negativo

    if ((f < DIM) && (f >= 0) && (c < DIM) && (c >= 0) && (tablero[f][c] != CASILLA_VACIA))
    {
        *posicion_valida = 1;
 c001f6c:	e50b0094 	str	r0, [fp, #-148]	; 0xffffff6c
int elegir_mov(char candidatas[][DIM], char tablero[][DIM], char *f, char *c)
{
    int i, j, k, found;
    int mf = -1; // almacena la fila del mejor movimiento encontrado
    int mc;      // almacena la columna del mejor movimiento encontrado
    char mejor = 0; // almacena el mejor valor encontrado
 c001f70:	e50b008c 	str	r0, [fp, #-140]	; 0xffffff74
// SI    1
// CASILLA_OCUPADA 2
int elegir_mov(char candidatas[][DIM], char tablero[][DIM], char *f, char *c)
{
    int i, j, k, found;
    int mf = -1; // almacena la fila del mejor movimiento encontrado
 c001f74:	e50b1090 	str	r1, [fp, #-144]	; 0xffffff70
// tablero, fila, columna y ready son variables globales aunque deberan ser locales de reversi8,
// la razn es que al meterlas en la pila no las pone juntas, y as jugar es ms complicado.
// en esta versin el humano lleva negras y la mquina blancas
// no se comprueba que el humano mueva correctamente.
// Slo que la mquina realice un movimiento correcto.
void reversi8()
 c001f78:	e51b0084 	ldr	r0, [fp, #-132]	; 0xffffff7c
    {
        for (j=0; j<DIM; j++)
        {   // indica en qu casillas quiz se pueda mover
            if (candidatas[i][j] == SI)
            {
                if (tablero[i][j] == CASILLA_VACIA)
 c001f7c:	e51b3084 	ldr	r3, [fp, #-132]	; 0xffffff7c
// tablero, fila, columna y ready son variables globales aunque deberan ser locales de reversi8,
// la razn es que al meterlas en la pila no las pone juntas, y as jugar es ms complicado.
// en esta versin el humano lleva negras y la mquina blancas
// no se comprueba que el humano mueva correctamente.
// Slo que la mquina realice un movimiento correcto.
void reversi8()
 c001f80:	e1a09180 	lsl	r9, r0, #3
 c001f84:	e2492001 	sub	r2, r9, #1
 c001f88:	e59f8224 	ldr	r8, [pc, #548]	; c0021b4 <reversi8+0x3ac>
 c001f8c:	e24be074 	sub	lr, fp, #116	; 0x74
 c001f90:	e08e1002 	add	r1, lr, r2
    {
        for (j=0; j<DIM; j++)
        {   // indica en qu casillas quiz se pueda mover
            if (candidatas[i][j] == SI)
            {
                if (tablero[i][j] == CASILLA_VACIA)
 c001f94:	e203c0ff 	and	ip, r3, #255	; 0xff
// tablero, fila, columna y ready son variables globales aunque deberan ser locales de reversi8,
// la razn es que al meterlas en la pila no las pone juntas, y as jugar es ms complicado.
// en esta versin el humano lleva negras y la mquina blancas
// no se comprueba que el humano mueva correctamente.
// Slo que la mquina realice un movimiento correcto.
void reversi8()
 c001f98:	e0889009 	add	r9, r8, r9
 c001f9c:	e50b1078 	str	r1, [fp, #-120]	; 0xffffff88
 c001fa0:	e3a08000 	mov	r8, #0
    {
        for (j=0; j<DIM; j++)
        {   // indica en qu casillas quiz se pueda mover
            if (candidatas[i][j] == SI)
            {
                if (tablero[i][j] == CASILLA_VACIA)
 c001fa4:	e50bc080 	str	ip, [fp, #-128]	; 0xffffff80
 c001fa8:	ea000003 	b	c001fbc <reversi8+0x1b4>

    // Recorremos todo el tablero comprobando dnde podemos mover
    // Comparamos la puntuacin de los movimientos encontrados y nos quedamos con el mejor
    for (i=0; i<DIM; i++)
    {
        for (j=0; j<DIM; j++)
 c001fac:	e2888001 	add	r8, r8, #1
 c001fb0:	e3580008 	cmp	r8, #8
 c001fb4:	e2899001 	add	r9, r9, #1
 c001fb8:	0a000054 	beq	c002110 <reversi8+0x308>
        {   // indica en qu casillas quiz se pueda mover
            if (candidatas[i][j] == SI)
 c001fbc:	e51bc078 	ldr	ip, [fp, #-120]	; 0xffffff88
 c001fc0:	e5fc2001 	ldrb	r2, [ip, #1]!
 c001fc4:	e3520001 	cmp	r2, #1
 c001fc8:	e50bc078 	str	ip, [fp, #-120]	; 0xffffff88
 c001fcc:	1afffff6 	bne	c001fac <reversi8+0x1a4>
            {
                if (tablero[i][j] == CASILLA_VACIA)
 c001fd0:	e5d97000 	ldrb	r7, [r9]
 c001fd4:	e3570000 	cmp	r7, #0
 c001fd8:	1afffff3 	bne	c001fac <reversi8+0x1a4>
 c001fdc:	e20850ff 	and	r5, r8, #255	; 0xff
 c001fe0:	e50b507c 	str	r5, [fp, #-124]	; 0xffffff84
 c001fe4:	e1a0a008 	mov	sl, r8

                    // en este bucle comprobamos si es un movimiento vlido
                    // (es decir si implica voltear en alguna direccin)
                    while ((found == 0) && (k < DIM))
                    {
                        SF = vSF[k];    // k representa la direccin que miramos
 c001fe8:	e59fe1c8 	ldr	lr, [pc, #456]	; c0021b8 <reversi8+0x3b0>
int patron_volteo(char tablero[][DIM], int *longitud, char FA, char CA, char SF, char SC, char color)
{
	int posicion_valida; // indica si la posicin es valida y contiene una ficha de algn jugador
	char casilla;   // casilla es la casilla que se lee del tablerotes();

	FA = FA + SF;
 c001fec:	e51b1080 	ldr	r1, [fp, #-128]	; 0xffffff80

                    // en este bucle comprobamos si es un movimiento vlido
                    // (es decir si implica voltear en alguna direccin)
                    while ((found == 0) && (k < DIM))
                    {
                        SF = vSF[k];    // k representa la direccin que miramos
 c001ff0:	e7de6007 	ldrb	r6, [lr, r7]
                        SC = vSC[k];    // 1 es norte, 2 NE, 3 E ...
 c001ff4:	e28e0008 	add	r0, lr, #8
int patron_volteo(char tablero[][DIM], int *longitud, char FA, char CA, char SF, char SC, char color)
{
	int posicion_valida; // indica si la posicin es valida y contiene una ficha de algn jugador
	char casilla;   // casilla es la casilla que se lee del tablerotes();

	FA = FA + SF;
 c001ff8:	e0863001 	add	r3, r6, r1
                    // en este bucle comprobamos si es un movimiento vlido
                    // (es decir si implica voltear en alguna direccin)
                    while ((found == 0) && (k < DIM))
                    {
                        SF = vSF[k];    // k representa la direccin que miramos
                        SC = vSC[k];    // 1 es norte, 2 NE, 3 E ...
 c001ffc:	e7d05007 	ldrb	r5, [r0, r7]
{
	int posicion_valida; // indica si la posicin es valida y contiene una ficha de algn jugador
	char casilla;   // casilla es la casilla que se lee del tablerotes();

	FA = FA + SF;
	CA = CA + SC;
 c002000:	e51b107c 	ldr	r1, [fp, #-124]	; 0xffffff84
 c002004:	e0858001 	add	r8, r5, r1
int patron_volteo(char tablero[][DIM], int *longitud, char FA, char CA, char SF, char SC, char color)
{
	int posicion_valida; // indica si la posicin es valida y contiene una ficha de algn jugador
	char casilla;   // casilla es la casilla que se lee del tablerotes();

	FA = FA + SF;
 c002008:	e20320ff 	and	r2, r3, #255	; 0xff
	CA = CA + SC;
 c00200c:	e20830ff 	and	r3, r8, #255	; 0xff
//    printf("%c, %c, %i",f, c, *posicion_valida);
    // ficha = tablero[f][c];
    // no puede accederse a tablero[f][c]
    // ya que algn ndice puede ser negativo

    if ((f < DIM) && (f >= 0) && (c < DIM) && (c >= 0) && (tablero[f][c] != CASILLA_VACIA))
 c002010:	e3530007 	cmp	r3, #7
 c002014:	93520007 	cmpls	r2, #7
 c002018:	83a00000 	movhi	r0, #0
 c00201c:	93a00001 	movls	r0, #1
        ficha = tablero[f][c];
    }
    else
    {
        *posicion_valida = 0;
        ficha = CASILLA_VACIA;
 c002020:	81a01000 	movhi	r1, r0
//    printf("%c, %c, %i",f, c, *posicion_valida);
    // ficha = tablero[f][c];
    // no puede accederse a tablero[f][c]
    // ya que algn ndice puede ser negativo

    if ((f < DIM) && (f >= 0) && (c < DIM) && (c >= 0) && (tablero[f][c] != CASILLA_VACIA))
 c002024:	8a000005 	bhi	c002040 <reversi8+0x238>
 c002028:	e0848182 	add	r8, r4, r2, lsl #3
 c00202c:	e088c003 	add	ip, r8, r3
 c002030:	e5dc1008 	ldrb	r1, [ip, #8]
    {
        *posicion_valida = 1;
 c002034:	e3510000 	cmp	r1, #0
 c002038:	01a00001 	moveq	r0, r1
 c00203c:	13a00001 	movne	r0, #1
//    printf("%c, %c, %i",f, c, *posicion_valida);
    // ficha = tablero[f][c];
    // no puede accederse a tablero[f][c]
    // ya que algn ndice puede ser negativo

    if ((f < DIM) && (f >= 0) && (c < DIM) && (c >= 0) && (tablero[f][c] != CASILLA_VACIA))
 c002040:	e0822006 	add	r2, r2, r6
 c002044:	e0833005 	add	r3, r3, r5
 c002048:	e20220ff 	and	r2, r2, #255	; 0xff
 c00204c:	e20330ff 	and	r3, r3, #255	; 0xff
    {
        *posicion_valida = 1;
 c002050:	e3a0c000 	mov	ip, #0
 c002054:	e1a08007 	mov	r8, r7
 c002058:	ea000010 	b	c0020a0 <reversi8+0x298>
//    printf("%c, %c, %i",f, c, *posicion_valida);
    // ficha = tablero[f][c];
    // no puede accederse a tablero[f][c]
    // ya que algn ndice puede ser negativo

    if ((f < DIM) && (f >= 0) && (c < DIM) && (c >= 0) && (tablero[f][c] != CASILLA_VACIA))
 c00205c:	e3530007 	cmp	r3, #7
 c002060:	93520007 	cmpls	r2, #7
 c002064:	83a00000 	movhi	r0, #0
 c002068:	93a00001 	movls	r0, #1
	// mientras la casilla est en el tablero, no est vaca,
	// y es del color rival seguimos buscando el patron de volteo
	{
		FA = FA + SF;
		CA = CA + SC;
		*longitud = *longitud + 1;
 c00206c:	e28cc001 	add	ip, ip, #1
        ficha = tablero[f][c];
    }
    else
    {
        *posicion_valida = 0;
        ficha = CASILLA_VACIA;
 c002070:	81a01000 	movhi	r1, r0
//    printf("%c, %c, %i",f, c, *posicion_valida);
    // ficha = tablero[f][c];
    // no puede accederse a tablero[f][c]
    // ya que algn ndice puede ser negativo

    if ((f < DIM) && (f >= 0) && (c < DIM) && (c >= 0) && (tablero[f][c] != CASILLA_VACIA))
 c002074:	8a000005 	bhi	c002090 <reversi8+0x288>
 c002078:	e0841182 	add	r1, r4, r2, lsl #3
 c00207c:	e0817003 	add	r7, r1, r3
 c002080:	e5d71008 	ldrb	r1, [r7, #8]
    {
        *posicion_valida = 1;
 c002084:	e3510000 	cmp	r1, #0
 c002088:	01a00001 	moveq	r0, r1
 c00208c:	13a00001 	movne	r0, #1
//    printf("%c, %c, %i",f, c, *posicion_valida);
    // ficha = tablero[f][c];
    // no puede accederse a tablero[f][c]
    // ya que algn ndice puede ser negativo

    if ((f < DIM) && (f >= 0) && (c < DIM) && (c >= 0) && (tablero[f][c] != CASILLA_VACIA))
 c002090:	e0822006 	add	r2, r2, r6
 c002094:	e083e005 	add	lr, r3, r5
 c002098:	e20220ff 	and	r2, r2, #255	; 0xff
 c00209c:	e20e30ff 	and	r3, lr, #255	; 0xff
	char casilla;   // casilla es la casilla que se lee del tablerotes();

	FA = FA + SF;
	CA = CA + SC;
	casilla = ficha_valida(tablero, FA, CA, &posicion_valida);
	while ((posicion_valida == 1) && (casilla != color))
 c0020a0:	e20000ff 	and	r0, r0, #255	; 0xff
 c0020a4:	e3510001 	cmp	r1, #1
 c0020a8:	03a07000 	moveq	r7, #0
 c0020ac:	12007001 	andne	r7, r0, #1
 c0020b0:	e3570000 	cmp	r7, #0
 c0020b4:	1affffe8 	bne	c00205c <reversi8+0x254>
		*longitud = *longitud + 1;
		casilla = ficha_valida(tablero, FA, CA, &posicion_valida);
	}
    // si la ultima posicin era vlida y la ficha es del jugador actual,
    // entonces hemos encontrado el patrn
	if ((posicion_valida == 1) && (casilla == color) && (*longitud >0)) {
 c0020b8:	e3510001 	cmp	r1, #1
 c0020bc:	13a00000 	movne	r0, #0
 c0020c0:	02000001 	andeq	r0, r0, #1
 c0020c4:	e3500000 	cmp	r0, #0
 c0020c8:	e1a07008 	mov	r7, r8
 c0020cc:	0a000020 	beq	c002154 <reversi8+0x34c>
 c0020d0:	e35c0000 	cmp	ip, #0
 c0020d4:	0a00001e 	beq	c002154 <reversi8+0x34c>
                        patron = patron_volteo(tablero, &longitud, i, j, SF, SC, FICHA_BLANCA);
                        //  //printf("%d ", patron);
                        if (patron == PATRON_ENCONTRADO)
                        {
                            found = 1;
                            if (tabla_valor[i][j] > mejor)
 c0020d8:	e24b008c 	sub	r0, fp, #140	; 0x8c
 c0020dc:	e8901001 	ldm	r0, {r0, ip}
 c0020e0:	e7dc300a 	ldrb	r3, [ip, sl]
 c0020e4:	e1530000 	cmp	r3, r0
 c0020e8:	e1a0800a 	mov	r8, sl
 c0020ec:	9affffae 	bls	c001fac <reversi8+0x1a4>
 c0020f0:	e50b308c 	str	r3, [fp, #-140]	; 0xffffff74

    // Recorremos todo el tablero comprobando dnde podemos mover
    // Comparamos la puntuacin de los movimientos encontrados y nos quedamos con el mejor
    for (i=0; i<DIM; i++)
    {
        for (j=0; j<DIM; j++)
 c0020f4:	e2888001 	add	r8, r8, #1
                        patron = patron_volteo(tablero, &longitud, i, j, SF, SC, FICHA_BLANCA);
                        //  //printf("%d ", patron);
                        if (patron == PATRON_ENCONTRADO)
                        {
                            found = 1;
                            if (tabla_valor[i][j] > mejor)
 c0020f8:	e51b3084 	ldr	r3, [fp, #-132]	; 0xffffff7c

    // Recorremos todo el tablero comprobando dnde podemos mover
    // Comparamos la puntuacin de los movimientos encontrados y nos quedamos con el mejor
    for (i=0; i<DIM; i++)
    {
        for (j=0; j<DIM; j++)
 c0020fc:	e3580008 	cmp	r8, #8
                        patron = patron_volteo(tablero, &longitud, i, j, SF, SC, FICHA_BLANCA);
                        //  //printf("%d ", patron);
                        if (patron == PATRON_ENCONTRADO)
                        {
                            found = 1;
                            if (tabla_valor[i][j] > mejor)
 c002100:	e50ba094 	str	sl, [fp, #-148]	; 0xffffff6c
 c002104:	e50b3090 	str	r3, [fp, #-144]	; 0xffffff70

    // Recorremos todo el tablero comprobando dnde podemos mover
    // Comparamos la puntuacin de los movimientos encontrados y nos quedamos con el mejor
    for (i=0; i<DIM; i++)
    {
        for (j=0; j<DIM; j++)
 c002108:	e2899001 	add	r9, r9, #1
 c00210c:	1affffaa 	bne	c001fbc <reversi8+0x1b4>
    int patron, longitud;
    char SF, SC; // cantidades a sumar para movernos en la direccin que toque

    // Recorremos todo el tablero comprobando dnde podemos mover
    // Comparamos la puntuacin de los movimientos encontrados y nos quedamos con el mejor
    for (i=0; i<DIM; i++)
 c002110:	e51b0084 	ldr	r0, [fp, #-132]	; 0xffffff7c
 c002114:	e51be088 	ldr	lr, [fp, #-136]	; 0xffffff78
 c002118:	e2802001 	add	r2, r0, #1
 c00211c:	e28e1008 	add	r1, lr, #8
 c002120:	e3520008 	cmp	r2, #8
 c002124:	e50b2084 	str	r2, [fp, #-132]	; 0xffffff7c
 c002128:	e50b1088 	str	r1, [fp, #-136]	; 0xffffff78
 c00212c:	1affff91 	bne	c001f78 <reversi8+0x170>
            move = 1;
        }

        // escribe el movimiento en las variables globales fila columna
        done = elegir_mov(candidatas, tablero, &f, &c);
        if (done == -1)
 c002130:	e51bc090 	ldr	ip, [fp, #-144]	; 0xffffff70
 c002134:	e37c0001 	cmn	ip, #1
 c002138:	1a00000a 	bne	c002168 <reversi8+0x360>
        {
            if (move == 0)
 c00213c:	e51b3098 	ldr	r3, [fp, #-152]	; 0xffffff68
 c002140:	e3530000 	cmp	r3, #0
 c002144:	1affff60 	bne	c001ecc <reversi8+0xc4>
            actualizar_candidatas(candidatas, f, c);
        }
    }
    contar(tablero, &blancas, &negras);

}
 c002148:	e24bd028 	sub	sp, fp, #40	; 0x28
 c00214c:	e89d6ff0 	ldm	sp, {r4, r5, r6, r7, r8, r9, sl, fp, sp, lr}
 c002150:	e12fff1e 	bx	lr
                                mf = i;
                                mc = j;
                                mejor = tabla_valor[i][j];
                            }
                        }
                        k++;
 c002154:	e2877001 	add	r7, r7, #1
                    found = 0;
                    k = 0;

                    // en este bucle comprobamos si es un movimiento vlido
                    // (es decir si implica voltear en alguna direccin)
                    while ((found == 0) && (k < DIM))
 c002158:	e3570008 	cmp	r7, #8
 c00215c:	1affffa1 	bne	c001fe8 <reversi8+0x1e0>
 c002160:	e1a0800a 	mov	r8, sl
 c002164:	eaffff90 	b	c001fac <reversi8+0x1a4>
                    }
                }
            }
        }
    }
    *f = (char) mf;
 c002168:	e24b5094 	sub	r5, fp, #148	; 0x94
 c00216c:	e8950060 	ldm	r5, {r5, r6}
 c002170:	e20660ff 	and	r6, r6, #255	; 0xff
    *c = (char) mc;
 c002174:	e20550ff 	and	r5, r5, #255	; 0xff
            if (move == 0)
                fin = 1;
        }
        else
        {
            tablero[f][c] = FICHA_BLANCA;
 c002178:	e0841186 	add	r1, r4, r6, lsl #3
 c00217c:	e3a09001 	mov	r9, #1
 c002180:	e0818005 	add	r8, r1, r5
            actualizar_tablero(tablero, f, c, FICHA_BLANCA);
 c002184:	e1a02009 	mov	r2, r9
 c002188:	e1a01005 	mov	r1, r5
 c00218c:	e1a00006 	mov	r0, r6
            if (move == 0)
                fin = 1;
        }
        else
        {
            tablero[f][c] = FICHA_BLANCA;
 c002190:	e5c89008 	strb	r9, [r8, #8]
            actualizar_tablero(tablero, f, c, FICHA_BLANCA);
 c002194:	ebfffb6d 	bl	c000f50 <actualizar_tablero.clone.0>
            actualizar_candidatas(candidatas, f, c);
 c002198:	e24b0074 	sub	r0, fp, #116	; 0x74
 c00219c:	e1a01006 	mov	r1, r6
 c0021a0:	e1a02005 	mov	r2, r5
 c0021a4:	ebfffed4 	bl	c001cfc <actualizar_candidatas>
 c0021a8:	eaffff47 	b	c001ecc <reversi8+0xc4>
 c0021ac:	0c0031f8 	.word	0x0c0031f8
 c0021b0:	0c0031a0 	.word	0x0c0031a0
 c0021b4:	0c003200 	.word	0x0c003200
 c0021b8:	0c003190 	.word	0x0c003190

0c0021bc <matriscopy>:
void matriscopy (int destmat[][DIM], int srcmat[][DIM])
{
  int i, j;
  for (i=0; i<DIM; i=i+1) /* rad-nr */
    for (j=0; j<DIM; j=j+1) /* kolumn-nr */
      destmat[i][j] = srcmat[i][j];
 c0021bc:	e5912000 	ldr	r2, [r1]
 c0021c0:	e5802000 	str	r2, [r0]
 c0021c4:	e5913004 	ldr	r3, [r1, #4]
 c0021c8:	e5803004 	str	r3, [r0, #4]
 c0021cc:	e591c008 	ldr	ip, [r1, #8]
 c0021d0:	e580c008 	str	ip, [r0, #8]
 c0021d4:	e591200c 	ldr	r2, [r1, #12]
 c0021d8:	e580200c 	str	r2, [r0, #12]
 c0021dc:	e5913010 	ldr	r3, [r1, #16]
 c0021e0:	e5803010 	str	r3, [r0, #16]
 c0021e4:	e591c014 	ldr	ip, [r1, #20]
 c0021e8:	e580c014 	str	ip, [r0, #20]
 c0021ec:	e5912018 	ldr	r2, [r1, #24]
 c0021f0:	e5802018 	str	r2, [r0, #24]
 c0021f4:	e591301c 	ldr	r3, [r1, #28]
 c0021f8:	e580301c 	str	r3, [r0, #28]
 c0021fc:	e591c020 	ldr	ip, [r1, #32]
 c002200:	e580c020 	str	ip, [r0, #32]
 c002204:	e5912024 	ldr	r2, [r1, #36]	; 0x24
 c002208:	e5802024 	str	r2, [r0, #36]	; 0x24
 c00220c:	e5913028 	ldr	r3, [r1, #40]	; 0x28
 c002210:	e5803028 	str	r3, [r0, #40]	; 0x28
 c002214:	e591c02c 	ldr	ip, [r1, #44]	; 0x2c
 c002218:	e580c02c 	str	ip, [r0, #44]	; 0x2c
 c00221c:	e5912030 	ldr	r2, [r1, #48]	; 0x30
 c002220:	e5802030 	str	r2, [r0, #48]	; 0x30
 c002224:	e5913034 	ldr	r3, [r1, #52]	; 0x34
 c002228:	e5803034 	str	r3, [r0, #52]	; 0x34
 c00222c:	e591c038 	ldr	ip, [r1, #56]	; 0x38
 c002230:	e580c038 	str	ip, [r0, #56]	; 0x38
 c002234:	e591203c 	ldr	r2, [r1, #60]	; 0x3c
 c002238:	e580203c 	str	r2, [r0, #60]	; 0x3c
 c00223c:	e5913040 	ldr	r3, [r1, #64]	; 0x40
 c002240:	e5803040 	str	r3, [r0, #64]	; 0x40
 c002244:	e591c044 	ldr	ip, [r1, #68]	; 0x44
 c002248:	e580c044 	str	ip, [r0, #68]	; 0x44
 c00224c:	e5912048 	ldr	r2, [r1, #72]	; 0x48
 c002250:	e5802048 	str	r2, [r0, #72]	; 0x48
 c002254:	e591c04c 	ldr	ip, [r1, #76]	; 0x4c
 c002258:	e580c04c 	str	ip, [r0, #76]	; 0x4c
 c00225c:	e5913050 	ldr	r3, [r1, #80]	; 0x50
 c002260:	e5803050 	str	r3, [r0, #80]	; 0x50
 c002264:	e5912054 	ldr	r2, [r1, #84]	; 0x54
 c002268:	e5802054 	str	r2, [r0, #84]	; 0x54
 c00226c:	e591c058 	ldr	ip, [r1, #88]	; 0x58
 c002270:	e580c058 	str	ip, [r0, #88]	; 0x58
 c002274:	e591305c 	ldr	r3, [r1, #92]	; 0x5c
 c002278:	e580305c 	str	r3, [r0, #92]	; 0x5c
 c00227c:	e5912060 	ldr	r2, [r1, #96]	; 0x60
 c002280:	e5802060 	str	r2, [r0, #96]	; 0x60
 c002284:	e591c064 	ldr	ip, [r1, #100]	; 0x64
 c002288:	e580c064 	str	ip, [r0, #100]	; 0x64
 c00228c:	e5913068 	ldr	r3, [r1, #104]	; 0x68
 c002290:	e5803068 	str	r3, [r0, #104]	; 0x68
 c002294:	e591206c 	ldr	r2, [r1, #108]	; 0x6c
 c002298:	e580206c 	str	r2, [r0, #108]	; 0x6c
 c00229c:	e591c070 	ldr	ip, [r1, #112]	; 0x70
 c0022a0:	e580c070 	str	ip, [r0, #112]	; 0x70
 c0022a4:	e5913074 	ldr	r3, [r1, #116]	; 0x74
 c0022a8:	e5803074 	str	r3, [r0, #116]	; 0x74
 c0022ac:	e5912078 	ldr	r2, [r1, #120]	; 0x78
 c0022b0:	e5802078 	str	r2, [r0, #120]	; 0x78
 c0022b4:	e591c07c 	ldr	ip, [r1, #124]	; 0x7c
 c0022b8:	e580c07c 	str	ip, [r0, #124]	; 0x7c
 c0022bc:	e5913080 	ldr	r3, [r1, #128]	; 0x80
 c0022c0:	e5803080 	str	r3, [r0, #128]	; 0x80
 c0022c4:	e5912084 	ldr	r2, [r1, #132]	; 0x84
 c0022c8:	e5802084 	str	r2, [r0, #132]	; 0x84
 c0022cc:	e591c088 	ldr	ip, [r1, #136]	; 0x88
 c0022d0:	e580c088 	str	ip, [r0, #136]	; 0x88
 c0022d4:	e591208c 	ldr	r2, [r1, #140]	; 0x8c
 c0022d8:	e580208c 	str	r2, [r0, #140]	; 0x8c
 c0022dc:	e5913090 	ldr	r3, [r1, #144]	; 0x90
 c0022e0:	e5803090 	str	r3, [r0, #144]	; 0x90
 c0022e4:	e591c094 	ldr	ip, [r1, #148]	; 0x94
 c0022e8:	e580c094 	str	ip, [r0, #148]	; 0x94
 c0022ec:	e5912098 	ldr	r2, [r1, #152]	; 0x98
 c0022f0:	e5802098 	str	r2, [r0, #152]	; 0x98
 c0022f4:	e591309c 	ldr	r3, [r1, #156]	; 0x9c
 c0022f8:	e580309c 	str	r3, [r0, #156]	; 0x9c
 c0022fc:	e591c0a0 	ldr	ip, [r1, #160]	; 0xa0
 c002300:	e580c0a0 	str	ip, [r0, #160]	; 0xa0
 c002304:	e59120a4 	ldr	r2, [r1, #164]	; 0xa4
 c002308:	e58020a4 	str	r2, [r0, #164]	; 0xa4
 c00230c:	e59130a8 	ldr	r3, [r1, #168]	; 0xa8
 c002310:	e58030a8 	str	r3, [r0, #168]	; 0xa8
 c002314:	e591c0ac 	ldr	ip, [r1, #172]	; 0xac
 c002318:	e580c0ac 	str	ip, [r0, #172]	; 0xac
 c00231c:	e59120b0 	ldr	r2, [r1, #176]	; 0xb0
 c002320:	e58020b0 	str	r2, [r0, #176]	; 0xb0
 c002324:	e59130b4 	ldr	r3, [r1, #180]	; 0xb4
 c002328:	e58030b4 	str	r3, [r0, #180]	; 0xb4
 c00232c:	e591c0b8 	ldr	ip, [r1, #184]	; 0xb8
 c002330:	e580c0b8 	str	ip, [r0, #184]	; 0xb8
 c002334:	e59120bc 	ldr	r2, [r1, #188]	; 0xbc
 c002338:	e58020bc 	str	r2, [r0, #188]	; 0xbc
 c00233c:	e59130c0 	ldr	r3, [r1, #192]	; 0xc0
 c002340:	e58030c0 	str	r3, [r0, #192]	; 0xc0
 c002344:	e591c0c4 	ldr	ip, [r1, #196]	; 0xc4
 c002348:	e580c0c4 	str	ip, [r0, #196]	; 0xc4
 c00234c:	e59120c8 	ldr	r2, [r1, #200]	; 0xc8
 c002350:	e58020c8 	str	r2, [r0, #200]	; 0xc8
 c002354:	e59130cc 	ldr	r3, [r1, #204]	; 0xcc
 c002358:	e58030cc 	str	r3, [r0, #204]	; 0xcc
 c00235c:	e591c0d0 	ldr	ip, [r1, #208]	; 0xd0
 c002360:	e580c0d0 	str	ip, [r0, #208]	; 0xd0
 c002364:	e59120d4 	ldr	r2, [r1, #212]	; 0xd4
 c002368:	e58020d4 	str	r2, [r0, #212]	; 0xd4
 c00236c:	e59130d8 	ldr	r3, [r1, #216]	; 0xd8
 c002370:	e58030d8 	str	r3, [r0, #216]	; 0xd8
 c002374:	e591c0dc 	ldr	ip, [r1, #220]	; 0xdc
 c002378:	e580c0dc 	str	ip, [r0, #220]	; 0xdc
 c00237c:	e59120e0 	ldr	r2, [r1, #224]	; 0xe0
 c002380:	e58020e0 	str	r2, [r0, #224]	; 0xe0
 c002384:	e59130e4 	ldr	r3, [r1, #228]	; 0xe4
 c002388:	e58030e4 	str	r3, [r0, #228]	; 0xe4
 c00238c:	e591c0e8 	ldr	ip, [r1, #232]	; 0xe8
 c002390:	e580c0e8 	str	ip, [r0, #232]	; 0xe8
 c002394:	e59120ec 	ldr	r2, [r1, #236]	; 0xec
 c002398:	e58020ec 	str	r2, [r0, #236]	; 0xec
 c00239c:	e59130f0 	ldr	r3, [r1, #240]	; 0xf0
 c0023a0:	e58030f0 	str	r3, [r0, #240]	; 0xf0
 c0023a4:	e591c0f4 	ldr	ip, [r1, #244]	; 0xf4
 c0023a8:	e580c0f4 	str	ip, [r0, #244]	; 0xf4
 c0023ac:	e59120f8 	ldr	r2, [r1, #248]	; 0xf8
 c0023b0:	e58020f8 	str	r2, [r0, #248]	; 0xf8
 c0023b4:	e59130fc 	ldr	r3, [r1, #252]	; 0xfc
 c0023b8:	e58030fc 	str	r3, [r0, #252]	; 0xfc
}
 c0023bc:	e12fff1e 	bx	lr

0c0023c0 <comprobar_tableros>:

int comprobar_tableros(char tablero1[][DIM], char tablero2[][DIM], char tablero3[][DIM]) {
 c0023c0:	e92d0070 	push	{r4, r5, r6}
	int i = 0;
	int j = 0;

	for (i = 0; i < DIM; i++) {
		for (j = 0; j < DIM; j++) {
			if(tablero1[i][j] != tablero2[i][j] || tablero2[i][j] != tablero3[i][j] || tablero1[i][j] != tablero3[i][j]){
 c0023c4:	e5d0c000 	ldrb	ip, [r0]
 c0023c8:	e5d13000 	ldrb	r3, [r1]
 c0023cc:	e153000c 	cmp	r3, ip
				return TABLEROS_NO_IGUALES;
 c0023d0:	13a00000 	movne	r0, #0
	int i = 0;
	int j = 0;

	for (i = 0; i < DIM; i++) {
		for (j = 0; j < DIM; j++) {
			if(tablero1[i][j] != tablero2[i][j] || tablero2[i][j] != tablero3[i][j] || tablero1[i][j] != tablero3[i][j]){
 c0023d4:	1a00023d 	bne	c002cd0 <comprobar_tableros+0x910>
 c0023d8:	e5d2c000 	ldrb	ip, [r2]
 c0023dc:	e15c0003 	cmp	ip, r3
				return TABLEROS_NO_IGUALES;
 c0023e0:	13a00000 	movne	r0, #0
	int i = 0;
	int j = 0;

	for (i = 0; i < DIM; i++) {
		for (j = 0; j < DIM; j++) {
			if(tablero1[i][j] != tablero2[i][j] || tablero2[i][j] != tablero3[i][j] || tablero1[i][j] != tablero3[i][j]){
 c0023e4:	1a000239 	bne	c002cd0 <comprobar_tableros+0x910>
 c0023e8:	e5d0c001 	ldrb	ip, [r0, #1]
 c0023ec:	e5d13001 	ldrb	r3, [r1, #1]
 c0023f0:	e153000c 	cmp	r3, ip
				return TABLEROS_NO_IGUALES;
 c0023f4:	13a00000 	movne	r0, #0
	int i = 0;
	int j = 0;

	for (i = 0; i < DIM; i++) {
		for (j = 0; j < DIM; j++) {
			if(tablero1[i][j] != tablero2[i][j] || tablero2[i][j] != tablero3[i][j] || tablero1[i][j] != tablero3[i][j]){
 c0023f8:	1a000234 	bne	c002cd0 <comprobar_tableros+0x910>
 c0023fc:	e5d2c001 	ldrb	ip, [r2, #1]
 c002400:	e15c0003 	cmp	ip, r3
				return TABLEROS_NO_IGUALES;
 c002404:	13a00000 	movne	r0, #0
	int i = 0;
	int j = 0;

	for (i = 0; i < DIM; i++) {
		for (j = 0; j < DIM; j++) {
			if(tablero1[i][j] != tablero2[i][j] || tablero2[i][j] != tablero3[i][j] || tablero1[i][j] != tablero3[i][j]){
 c002408:	1a000230 	bne	c002cd0 <comprobar_tableros+0x910>
 c00240c:	e5d0c002 	ldrb	ip, [r0, #2]
 c002410:	e5d13002 	ldrb	r3, [r1, #2]
 c002414:	e153000c 	cmp	r3, ip
				return TABLEROS_NO_IGUALES;
 c002418:	13a00000 	movne	r0, #0
	int i = 0;
	int j = 0;

	for (i = 0; i < DIM; i++) {
		for (j = 0; j < DIM; j++) {
			if(tablero1[i][j] != tablero2[i][j] || tablero2[i][j] != tablero3[i][j] || tablero1[i][j] != tablero3[i][j]){
 c00241c:	1a00022b 	bne	c002cd0 <comprobar_tableros+0x910>
 c002420:	e5d2c002 	ldrb	ip, [r2, #2]
 c002424:	e15c0003 	cmp	ip, r3
				return TABLEROS_NO_IGUALES;
 c002428:	13a00000 	movne	r0, #0
	int i = 0;
	int j = 0;

	for (i = 0; i < DIM; i++) {
		for (j = 0; j < DIM; j++) {
			if(tablero1[i][j] != tablero2[i][j] || tablero2[i][j] != tablero3[i][j] || tablero1[i][j] != tablero3[i][j]){
 c00242c:	1a000227 	bne	c002cd0 <comprobar_tableros+0x910>
 c002430:	e5d0c003 	ldrb	ip, [r0, #3]
 c002434:	e5d13003 	ldrb	r3, [r1, #3]
 c002438:	e153000c 	cmp	r3, ip
				return TABLEROS_NO_IGUALES;
 c00243c:	13a00000 	movne	r0, #0
	int i = 0;
	int j = 0;

	for (i = 0; i < DIM; i++) {
		for (j = 0; j < DIM; j++) {
			if(tablero1[i][j] != tablero2[i][j] || tablero2[i][j] != tablero3[i][j] || tablero1[i][j] != tablero3[i][j]){
 c002440:	1a000222 	bne	c002cd0 <comprobar_tableros+0x910>
 c002444:	e5d2c003 	ldrb	ip, [r2, #3]
 c002448:	e15c0003 	cmp	ip, r3
				return TABLEROS_NO_IGUALES;
 c00244c:	13a00000 	movne	r0, #0
	int i = 0;
	int j = 0;

	for (i = 0; i < DIM; i++) {
		for (j = 0; j < DIM; j++) {
			if(tablero1[i][j] != tablero2[i][j] || tablero2[i][j] != tablero3[i][j] || tablero1[i][j] != tablero3[i][j]){
 c002450:	1a00021e 	bne	c002cd0 <comprobar_tableros+0x910>
 c002454:	e5d0c004 	ldrb	ip, [r0, #4]
 c002458:	e5d13004 	ldrb	r3, [r1, #4]
 c00245c:	e153000c 	cmp	r3, ip
				return TABLEROS_NO_IGUALES;
 c002460:	13a00000 	movne	r0, #0
	int i = 0;
	int j = 0;

	for (i = 0; i < DIM; i++) {
		for (j = 0; j < DIM; j++) {
			if(tablero1[i][j] != tablero2[i][j] || tablero2[i][j] != tablero3[i][j] || tablero1[i][j] != tablero3[i][j]){
 c002464:	1a000219 	bne	c002cd0 <comprobar_tableros+0x910>
 c002468:	e5d2c004 	ldrb	ip, [r2, #4]
 c00246c:	e15c0003 	cmp	ip, r3
				return TABLEROS_NO_IGUALES;
 c002470:	13a00000 	movne	r0, #0
	int i = 0;
	int j = 0;

	for (i = 0; i < DIM; i++) {
		for (j = 0; j < DIM; j++) {
			if(tablero1[i][j] != tablero2[i][j] || tablero2[i][j] != tablero3[i][j] || tablero1[i][j] != tablero3[i][j]){
 c002474:	1a000215 	bne	c002cd0 <comprobar_tableros+0x910>
 c002478:	e5d0c005 	ldrb	ip, [r0, #5]
 c00247c:	e5d13005 	ldrb	r3, [r1, #5]
 c002480:	e153000c 	cmp	r3, ip
				return TABLEROS_NO_IGUALES;
 c002484:	13a00000 	movne	r0, #0
	int i = 0;
	int j = 0;

	for (i = 0; i < DIM; i++) {
		for (j = 0; j < DIM; j++) {
			if(tablero1[i][j] != tablero2[i][j] || tablero2[i][j] != tablero3[i][j] || tablero1[i][j] != tablero3[i][j]){
 c002488:	1a000210 	bne	c002cd0 <comprobar_tableros+0x910>
 c00248c:	e5d2c005 	ldrb	ip, [r2, #5]
 c002490:	e15c0003 	cmp	ip, r3
				return TABLEROS_NO_IGUALES;
 c002494:	13a00000 	movne	r0, #0
	int i = 0;
	int j = 0;

	for (i = 0; i < DIM; i++) {
		for (j = 0; j < DIM; j++) {
			if(tablero1[i][j] != tablero2[i][j] || tablero2[i][j] != tablero3[i][j] || tablero1[i][j] != tablero3[i][j]){
 c002498:	1a00020c 	bne	c002cd0 <comprobar_tableros+0x910>
 c00249c:	e5d0c006 	ldrb	ip, [r0, #6]
 c0024a0:	e5d13006 	ldrb	r3, [r1, #6]
 c0024a4:	e153000c 	cmp	r3, ip
				return TABLEROS_NO_IGUALES;
 c0024a8:	13a00000 	movne	r0, #0
	int i = 0;
	int j = 0;

	for (i = 0; i < DIM; i++) {
		for (j = 0; j < DIM; j++) {
			if(tablero1[i][j] != tablero2[i][j] || tablero2[i][j] != tablero3[i][j] || tablero1[i][j] != tablero3[i][j]){
 c0024ac:	1a000207 	bne	c002cd0 <comprobar_tableros+0x910>
 c0024b0:	e5d2c006 	ldrb	ip, [r2, #6]
 c0024b4:	e15c0003 	cmp	ip, r3
				return TABLEROS_NO_IGUALES;
 c0024b8:	13a00000 	movne	r0, #0
	int i = 0;
	int j = 0;

	for (i = 0; i < DIM; i++) {
		for (j = 0; j < DIM; j++) {
			if(tablero1[i][j] != tablero2[i][j] || tablero2[i][j] != tablero3[i][j] || tablero1[i][j] != tablero3[i][j]){
 c0024bc:	1a000203 	bne	c002cd0 <comprobar_tableros+0x910>
 c0024c0:	e5d0c007 	ldrb	ip, [r0, #7]
 c0024c4:	e5d13007 	ldrb	r3, [r1, #7]
 c0024c8:	e153000c 	cmp	r3, ip
				return TABLEROS_NO_IGUALES;
 c0024cc:	13a00000 	movne	r0, #0
	int i = 0;
	int j = 0;

	for (i = 0; i < DIM; i++) {
		for (j = 0; j < DIM; j++) {
			if(tablero1[i][j] != tablero2[i][j] || tablero2[i][j] != tablero3[i][j] || tablero1[i][j] != tablero3[i][j]){
 c0024d0:	1a0001fe 	bne	c002cd0 <comprobar_tableros+0x910>
 c0024d4:	e5d2c007 	ldrb	ip, [r2, #7]
 c0024d8:	e15c0003 	cmp	ip, r3
				return TABLEROS_NO_IGUALES;
 c0024dc:	13a00000 	movne	r0, #0
	int i = 0;
	int j = 0;

	for (i = 0; i < DIM; i++) {
		for (j = 0; j < DIM; j++) {
			if(tablero1[i][j] != tablero2[i][j] || tablero2[i][j] != tablero3[i][j] || tablero1[i][j] != tablero3[i][j]){
 c0024e0:	1a0001fa 	bne	c002cd0 <comprobar_tableros+0x910>
 c0024e4:	e5d03008 	ldrb	r3, [r0, #8]
 c0024e8:	e5d14008 	ldrb	r4, [r1, #8]
 c0024ec:	e1540003 	cmp	r4, r3
				return TABLEROS_NO_IGUALES;
 c0024f0:	13a00000 	movne	r0, #0
	int i = 0;
	int j = 0;

	for (i = 0; i < DIM; i++) {
		for (j = 0; j < DIM; j++) {
			if(tablero1[i][j] != tablero2[i][j] || tablero2[i][j] != tablero3[i][j] || tablero1[i][j] != tablero3[i][j]){
 c0024f4:	1a0001f5 	bne	c002cd0 <comprobar_tableros+0x910>
 c0024f8:	e5d25008 	ldrb	r5, [r2, #8]
 c0024fc:	e1550004 	cmp	r5, r4
				return TABLEROS_NO_IGUALES;
 c002500:	13a00000 	movne	r0, #0
	int i = 0;
	int j = 0;

	for (i = 0; i < DIM; i++) {
		for (j = 0; j < DIM; j++) {
			if(tablero1[i][j] != tablero2[i][j] || tablero2[i][j] != tablero3[i][j] || tablero1[i][j] != tablero3[i][j]){
 c002504:	1a0001f1 	bne	c002cd0 <comprobar_tableros+0x910>
 c002508:	e5d06009 	ldrb	r6, [r0, #9]
 c00250c:	e5d15009 	ldrb	r5, [r1, #9]
 c002510:	e1550006 	cmp	r5, r6
				return TABLEROS_NO_IGUALES;
 c002514:	13a00000 	movne	r0, #0
	int i = 0;
	int j = 0;

	for (i = 0; i < DIM; i++) {
		for (j = 0; j < DIM; j++) {
			if(tablero1[i][j] != tablero2[i][j] || tablero2[i][j] != tablero3[i][j] || tablero1[i][j] != tablero3[i][j]){
 c002518:	1a0001ec 	bne	c002cd0 <comprobar_tableros+0x910>
 c00251c:	e5d26009 	ldrb	r6, [r2, #9]
 c002520:	e1560005 	cmp	r6, r5
				return TABLEROS_NO_IGUALES;
 c002524:	13a00000 	movne	r0, #0
	int i = 0;
	int j = 0;

	for (i = 0; i < DIM; i++) {
		for (j = 0; j < DIM; j++) {
			if(tablero1[i][j] != tablero2[i][j] || tablero2[i][j] != tablero3[i][j] || tablero1[i][j] != tablero3[i][j]){
 c002528:	1a0001e8 	bne	c002cd0 <comprobar_tableros+0x910>
 c00252c:	e5d0600a 	ldrb	r6, [r0, #10]
 c002530:	e5d1500a 	ldrb	r5, [r1, #10]
 c002534:	e1550006 	cmp	r5, r6
				return TABLEROS_NO_IGUALES;
 c002538:	13a00000 	movne	r0, #0
	int i = 0;
	int j = 0;

	for (i = 0; i < DIM; i++) {
		for (j = 0; j < DIM; j++) {
			if(tablero1[i][j] != tablero2[i][j] || tablero2[i][j] != tablero3[i][j] || tablero1[i][j] != tablero3[i][j]){
 c00253c:	1a0001e3 	bne	c002cd0 <comprobar_tableros+0x910>
 c002540:	e5d2600a 	ldrb	r6, [r2, #10]
 c002544:	e1560005 	cmp	r6, r5
				return TABLEROS_NO_IGUALES;
 c002548:	13a00000 	movne	r0, #0
	int i = 0;
	int j = 0;

	for (i = 0; i < DIM; i++) {
		for (j = 0; j < DIM; j++) {
			if(tablero1[i][j] != tablero2[i][j] || tablero2[i][j] != tablero3[i][j] || tablero1[i][j] != tablero3[i][j]){
 c00254c:	1a0001df 	bne	c002cd0 <comprobar_tableros+0x910>
 c002550:	e5d0600b 	ldrb	r6, [r0, #11]
 c002554:	e5d1500b 	ldrb	r5, [r1, #11]
 c002558:	e1550006 	cmp	r5, r6
				return TABLEROS_NO_IGUALES;
 c00255c:	13a00000 	movne	r0, #0
	int i = 0;
	int j = 0;

	for (i = 0; i < DIM; i++) {
		for (j = 0; j < DIM; j++) {
			if(tablero1[i][j] != tablero2[i][j] || tablero2[i][j] != tablero3[i][j] || tablero1[i][j] != tablero3[i][j]){
 c002560:	1a0001da 	bne	c002cd0 <comprobar_tableros+0x910>
 c002564:	e5d2600b 	ldrb	r6, [r2, #11]
 c002568:	e1560005 	cmp	r6, r5
				return TABLEROS_NO_IGUALES;
 c00256c:	13a00000 	movne	r0, #0
	int i = 0;
	int j = 0;

	for (i = 0; i < DIM; i++) {
		for (j = 0; j < DIM; j++) {
			if(tablero1[i][j] != tablero2[i][j] || tablero2[i][j] != tablero3[i][j] || tablero1[i][j] != tablero3[i][j]){
 c002570:	1a0001d6 	bne	c002cd0 <comprobar_tableros+0x910>
 c002574:	e5d0600c 	ldrb	r6, [r0, #12]
 c002578:	e5d1500c 	ldrb	r5, [r1, #12]
 c00257c:	e1550006 	cmp	r5, r6
				return TABLEROS_NO_IGUALES;
 c002580:	13a00000 	movne	r0, #0
	int i = 0;
	int j = 0;

	for (i = 0; i < DIM; i++) {
		for (j = 0; j < DIM; j++) {
			if(tablero1[i][j] != tablero2[i][j] || tablero2[i][j] != tablero3[i][j] || tablero1[i][j] != tablero3[i][j]){
 c002584:	1a0001d1 	bne	c002cd0 <comprobar_tableros+0x910>
 c002588:	e5d2600c 	ldrb	r6, [r2, #12]
 c00258c:	e1560005 	cmp	r6, r5
				return TABLEROS_NO_IGUALES;
 c002590:	13a00000 	movne	r0, #0
	int i = 0;
	int j = 0;

	for (i = 0; i < DIM; i++) {
		for (j = 0; j < DIM; j++) {
			if(tablero1[i][j] != tablero2[i][j] || tablero2[i][j] != tablero3[i][j] || tablero1[i][j] != tablero3[i][j]){
 c002594:	1a0001cd 	bne	c002cd0 <comprobar_tableros+0x910>
 c002598:	e5d0600d 	ldrb	r6, [r0, #13]
 c00259c:	e5d1500d 	ldrb	r5, [r1, #13]
 c0025a0:	e1550006 	cmp	r5, r6
				return TABLEROS_NO_IGUALES;
 c0025a4:	13a00000 	movne	r0, #0
	int i = 0;
	int j = 0;

	for (i = 0; i < DIM; i++) {
		for (j = 0; j < DIM; j++) {
			if(tablero1[i][j] != tablero2[i][j] || tablero2[i][j] != tablero3[i][j] || tablero1[i][j] != tablero3[i][j]){
 c0025a8:	1a0001c8 	bne	c002cd0 <comprobar_tableros+0x910>
 c0025ac:	e5d2600d 	ldrb	r6, [r2, #13]
 c0025b0:	e1560005 	cmp	r6, r5
				return TABLEROS_NO_IGUALES;
 c0025b4:	13a00000 	movne	r0, #0
	int i = 0;
	int j = 0;

	for (i = 0; i < DIM; i++) {
		for (j = 0; j < DIM; j++) {
			if(tablero1[i][j] != tablero2[i][j] || tablero2[i][j] != tablero3[i][j] || tablero1[i][j] != tablero3[i][j]){
 c0025b8:	1a0001c4 	bne	c002cd0 <comprobar_tableros+0x910>
 c0025bc:	e5d0600e 	ldrb	r6, [r0, #14]
 c0025c0:	e5d1500e 	ldrb	r5, [r1, #14]
 c0025c4:	e1550006 	cmp	r5, r6
				return TABLEROS_NO_IGUALES;
 c0025c8:	13a00000 	movne	r0, #0
	int i = 0;
	int j = 0;

	for (i = 0; i < DIM; i++) {
		for (j = 0; j < DIM; j++) {
			if(tablero1[i][j] != tablero2[i][j] || tablero2[i][j] != tablero3[i][j] || tablero1[i][j] != tablero3[i][j]){
 c0025cc:	1a0001bf 	bne	c002cd0 <comprobar_tableros+0x910>
 c0025d0:	e5d2600e 	ldrb	r6, [r2, #14]
 c0025d4:	e1560005 	cmp	r6, r5
				return TABLEROS_NO_IGUALES;
 c0025d8:	13a00000 	movne	r0, #0
	int i = 0;
	int j = 0;

	for (i = 0; i < DIM; i++) {
		for (j = 0; j < DIM; j++) {
			if(tablero1[i][j] != tablero2[i][j] || tablero2[i][j] != tablero3[i][j] || tablero1[i][j] != tablero3[i][j]){
 c0025dc:	1a0001bb 	bne	c002cd0 <comprobar_tableros+0x910>
 c0025e0:	e5d0c00f 	ldrb	ip, [r0, #15]
 c0025e4:	e5d1300f 	ldrb	r3, [r1, #15]
 c0025e8:	e153000c 	cmp	r3, ip
				return TABLEROS_NO_IGUALES;
 c0025ec:	13a00000 	movne	r0, #0
	int i = 0;
	int j = 0;

	for (i = 0; i < DIM; i++) {
		for (j = 0; j < DIM; j++) {
			if(tablero1[i][j] != tablero2[i][j] || tablero2[i][j] != tablero3[i][j] || tablero1[i][j] != tablero3[i][j]){
 c0025f0:	1a0001b6 	bne	c002cd0 <comprobar_tableros+0x910>
 c0025f4:	e5d2c00f 	ldrb	ip, [r2, #15]
 c0025f8:	e15c0003 	cmp	ip, r3
				return TABLEROS_NO_IGUALES;
 c0025fc:	13a00000 	movne	r0, #0
	int i = 0;
	int j = 0;

	for (i = 0; i < DIM; i++) {
		for (j = 0; j < DIM; j++) {
			if(tablero1[i][j] != tablero2[i][j] || tablero2[i][j] != tablero3[i][j] || tablero1[i][j] != tablero3[i][j]){
 c002600:	1a0001b2 	bne	c002cd0 <comprobar_tableros+0x910>
 c002604:	e5d03010 	ldrb	r3, [r0, #16]
 c002608:	e5d14010 	ldrb	r4, [r1, #16]
 c00260c:	e1540003 	cmp	r4, r3
				return TABLEROS_NO_IGUALES;
 c002610:	13a00000 	movne	r0, #0
	int i = 0;
	int j = 0;

	for (i = 0; i < DIM; i++) {
		for (j = 0; j < DIM; j++) {
			if(tablero1[i][j] != tablero2[i][j] || tablero2[i][j] != tablero3[i][j] || tablero1[i][j] != tablero3[i][j]){
 c002614:	1a0001ad 	bne	c002cd0 <comprobar_tableros+0x910>
 c002618:	e5d25010 	ldrb	r5, [r2, #16]
 c00261c:	e1550004 	cmp	r5, r4
				return TABLEROS_NO_IGUALES;
 c002620:	13a00000 	movne	r0, #0
	int i = 0;
	int j = 0;

	for (i = 0; i < DIM; i++) {
		for (j = 0; j < DIM; j++) {
			if(tablero1[i][j] != tablero2[i][j] || tablero2[i][j] != tablero3[i][j] || tablero1[i][j] != tablero3[i][j]){
 c002624:	1a0001a9 	bne	c002cd0 <comprobar_tableros+0x910>
 c002628:	e5d06011 	ldrb	r6, [r0, #17]
 c00262c:	e5d15011 	ldrb	r5, [r1, #17]
 c002630:	e1550006 	cmp	r5, r6
				return TABLEROS_NO_IGUALES;
 c002634:	13a00000 	movne	r0, #0
	int i = 0;
	int j = 0;

	for (i = 0; i < DIM; i++) {
		for (j = 0; j < DIM; j++) {
			if(tablero1[i][j] != tablero2[i][j] || tablero2[i][j] != tablero3[i][j] || tablero1[i][j] != tablero3[i][j]){
 c002638:	1a0001a4 	bne	c002cd0 <comprobar_tableros+0x910>
 c00263c:	e5d26011 	ldrb	r6, [r2, #17]
 c002640:	e1560005 	cmp	r6, r5
				return TABLEROS_NO_IGUALES;
 c002644:	13a00000 	movne	r0, #0
	int i = 0;
	int j = 0;

	for (i = 0; i < DIM; i++) {
		for (j = 0; j < DIM; j++) {
			if(tablero1[i][j] != tablero2[i][j] || tablero2[i][j] != tablero3[i][j] || tablero1[i][j] != tablero3[i][j]){
 c002648:	1a0001a0 	bne	c002cd0 <comprobar_tableros+0x910>
 c00264c:	e5d06012 	ldrb	r6, [r0, #18]
 c002650:	e5d15012 	ldrb	r5, [r1, #18]
 c002654:	e1550006 	cmp	r5, r6
				return TABLEROS_NO_IGUALES;
 c002658:	13a00000 	movne	r0, #0
	int i = 0;
	int j = 0;

	for (i = 0; i < DIM; i++) {
		for (j = 0; j < DIM; j++) {
			if(tablero1[i][j] != tablero2[i][j] || tablero2[i][j] != tablero3[i][j] || tablero1[i][j] != tablero3[i][j]){
 c00265c:	1a00019b 	bne	c002cd0 <comprobar_tableros+0x910>
 c002660:	e5d26012 	ldrb	r6, [r2, #18]
 c002664:	e1560005 	cmp	r6, r5
				return TABLEROS_NO_IGUALES;
 c002668:	13a00000 	movne	r0, #0
	int i = 0;
	int j = 0;

	for (i = 0; i < DIM; i++) {
		for (j = 0; j < DIM; j++) {
			if(tablero1[i][j] != tablero2[i][j] || tablero2[i][j] != tablero3[i][j] || tablero1[i][j] != tablero3[i][j]){
 c00266c:	1a000197 	bne	c002cd0 <comprobar_tableros+0x910>
 c002670:	e5d06013 	ldrb	r6, [r0, #19]
 c002674:	e5d15013 	ldrb	r5, [r1, #19]
 c002678:	e1550006 	cmp	r5, r6
				return TABLEROS_NO_IGUALES;
 c00267c:	13a00000 	movne	r0, #0
	int i = 0;
	int j = 0;

	for (i = 0; i < DIM; i++) {
		for (j = 0; j < DIM; j++) {
			if(tablero1[i][j] != tablero2[i][j] || tablero2[i][j] != tablero3[i][j] || tablero1[i][j] != tablero3[i][j]){
 c002680:	1a000192 	bne	c002cd0 <comprobar_tableros+0x910>
 c002684:	e5d26013 	ldrb	r6, [r2, #19]
 c002688:	e1560005 	cmp	r6, r5
				return TABLEROS_NO_IGUALES;
 c00268c:	13a00000 	movne	r0, #0
	int i = 0;
	int j = 0;

	for (i = 0; i < DIM; i++) {
		for (j = 0; j < DIM; j++) {
			if(tablero1[i][j] != tablero2[i][j] || tablero2[i][j] != tablero3[i][j] || tablero1[i][j] != tablero3[i][j]){
 c002690:	1a00018e 	bne	c002cd0 <comprobar_tableros+0x910>
 c002694:	e5d06014 	ldrb	r6, [r0, #20]
 c002698:	e5d15014 	ldrb	r5, [r1, #20]
 c00269c:	e1550006 	cmp	r5, r6
				return TABLEROS_NO_IGUALES;
 c0026a0:	13a00000 	movne	r0, #0
	int i = 0;
	int j = 0;

	for (i = 0; i < DIM; i++) {
		for (j = 0; j < DIM; j++) {
			if(tablero1[i][j] != tablero2[i][j] || tablero2[i][j] != tablero3[i][j] || tablero1[i][j] != tablero3[i][j]){
 c0026a4:	1a000189 	bne	c002cd0 <comprobar_tableros+0x910>
 c0026a8:	e5d26014 	ldrb	r6, [r2, #20]
 c0026ac:	e1560005 	cmp	r6, r5
				return TABLEROS_NO_IGUALES;
 c0026b0:	13a00000 	movne	r0, #0
	int i = 0;
	int j = 0;

	for (i = 0; i < DIM; i++) {
		for (j = 0; j < DIM; j++) {
			if(tablero1[i][j] != tablero2[i][j] || tablero2[i][j] != tablero3[i][j] || tablero1[i][j] != tablero3[i][j]){
 c0026b4:	1a000185 	bne	c002cd0 <comprobar_tableros+0x910>
 c0026b8:	e5d06015 	ldrb	r6, [r0, #21]
 c0026bc:	e5d15015 	ldrb	r5, [r1, #21]
 c0026c0:	e1550006 	cmp	r5, r6
				return TABLEROS_NO_IGUALES;
 c0026c4:	13a00000 	movne	r0, #0
	int i = 0;
	int j = 0;

	for (i = 0; i < DIM; i++) {
		for (j = 0; j < DIM; j++) {
			if(tablero1[i][j] != tablero2[i][j] || tablero2[i][j] != tablero3[i][j] || tablero1[i][j] != tablero3[i][j]){
 c0026c8:	1a000180 	bne	c002cd0 <comprobar_tableros+0x910>
 c0026cc:	e5d26015 	ldrb	r6, [r2, #21]
 c0026d0:	e1560005 	cmp	r6, r5
				return TABLEROS_NO_IGUALES;
 c0026d4:	13a00000 	movne	r0, #0
	int i = 0;
	int j = 0;

	for (i = 0; i < DIM; i++) {
		for (j = 0; j < DIM; j++) {
			if(tablero1[i][j] != tablero2[i][j] || tablero2[i][j] != tablero3[i][j] || tablero1[i][j] != tablero3[i][j]){
 c0026d8:	1a00017c 	bne	c002cd0 <comprobar_tableros+0x910>
 c0026dc:	e5d06016 	ldrb	r6, [r0, #22]
 c0026e0:	e5d15016 	ldrb	r5, [r1, #22]
 c0026e4:	e1550006 	cmp	r5, r6
				return TABLEROS_NO_IGUALES;
 c0026e8:	13a00000 	movne	r0, #0
	int i = 0;
	int j = 0;

	for (i = 0; i < DIM; i++) {
		for (j = 0; j < DIM; j++) {
			if(tablero1[i][j] != tablero2[i][j] || tablero2[i][j] != tablero3[i][j] || tablero1[i][j] != tablero3[i][j]){
 c0026ec:	1a000177 	bne	c002cd0 <comprobar_tableros+0x910>
 c0026f0:	e5d26016 	ldrb	r6, [r2, #22]
 c0026f4:	e1560005 	cmp	r6, r5
				return TABLEROS_NO_IGUALES;
 c0026f8:	13a00000 	movne	r0, #0
	int i = 0;
	int j = 0;

	for (i = 0; i < DIM; i++) {
		for (j = 0; j < DIM; j++) {
			if(tablero1[i][j] != tablero2[i][j] || tablero2[i][j] != tablero3[i][j] || tablero1[i][j] != tablero3[i][j]){
 c0026fc:	1a000173 	bne	c002cd0 <comprobar_tableros+0x910>
 c002700:	e5d0c017 	ldrb	ip, [r0, #23]
 c002704:	e5d13017 	ldrb	r3, [r1, #23]
 c002708:	e153000c 	cmp	r3, ip
				return TABLEROS_NO_IGUALES;
 c00270c:	13a00000 	movne	r0, #0
	int i = 0;
	int j = 0;

	for (i = 0; i < DIM; i++) {
		for (j = 0; j < DIM; j++) {
			if(tablero1[i][j] != tablero2[i][j] || tablero2[i][j] != tablero3[i][j] || tablero1[i][j] != tablero3[i][j]){
 c002710:	1a00016e 	bne	c002cd0 <comprobar_tableros+0x910>
 c002714:	e5d2c017 	ldrb	ip, [r2, #23]
 c002718:	e15c0003 	cmp	ip, r3
				return TABLEROS_NO_IGUALES;
 c00271c:	13a00000 	movne	r0, #0
	int i = 0;
	int j = 0;

	for (i = 0; i < DIM; i++) {
		for (j = 0; j < DIM; j++) {
			if(tablero1[i][j] != tablero2[i][j] || tablero2[i][j] != tablero3[i][j] || tablero1[i][j] != tablero3[i][j]){
 c002720:	1a00016a 	bne	c002cd0 <comprobar_tableros+0x910>
 c002724:	e5d03018 	ldrb	r3, [r0, #24]
 c002728:	e5d14018 	ldrb	r4, [r1, #24]
 c00272c:	e1540003 	cmp	r4, r3
				return TABLEROS_NO_IGUALES;
 c002730:	13a00000 	movne	r0, #0
	int i = 0;
	int j = 0;

	for (i = 0; i < DIM; i++) {
		for (j = 0; j < DIM; j++) {
			if(tablero1[i][j] != tablero2[i][j] || tablero2[i][j] != tablero3[i][j] || tablero1[i][j] != tablero3[i][j]){
 c002734:	1a000165 	bne	c002cd0 <comprobar_tableros+0x910>
 c002738:	e5d25018 	ldrb	r5, [r2, #24]
 c00273c:	e1550004 	cmp	r5, r4
				return TABLEROS_NO_IGUALES;
 c002740:	13a00000 	movne	r0, #0
	int i = 0;
	int j = 0;

	for (i = 0; i < DIM; i++) {
		for (j = 0; j < DIM; j++) {
			if(tablero1[i][j] != tablero2[i][j] || tablero2[i][j] != tablero3[i][j] || tablero1[i][j] != tablero3[i][j]){
 c002744:	1a000161 	bne	c002cd0 <comprobar_tableros+0x910>
 c002748:	e5d06019 	ldrb	r6, [r0, #25]
 c00274c:	e5d15019 	ldrb	r5, [r1, #25]
 c002750:	e1550006 	cmp	r5, r6
				return TABLEROS_NO_IGUALES;
 c002754:	13a00000 	movne	r0, #0
	int i = 0;
	int j = 0;

	for (i = 0; i < DIM; i++) {
		for (j = 0; j < DIM; j++) {
			if(tablero1[i][j] != tablero2[i][j] || tablero2[i][j] != tablero3[i][j] || tablero1[i][j] != tablero3[i][j]){
 c002758:	1a00015c 	bne	c002cd0 <comprobar_tableros+0x910>
 c00275c:	e5d26019 	ldrb	r6, [r2, #25]
 c002760:	e1560005 	cmp	r6, r5
				return TABLEROS_NO_IGUALES;
 c002764:	13a00000 	movne	r0, #0
	int i = 0;
	int j = 0;

	for (i = 0; i < DIM; i++) {
		for (j = 0; j < DIM; j++) {
			if(tablero1[i][j] != tablero2[i][j] || tablero2[i][j] != tablero3[i][j] || tablero1[i][j] != tablero3[i][j]){
 c002768:	1a000158 	bne	c002cd0 <comprobar_tableros+0x910>
 c00276c:	e5d0601a 	ldrb	r6, [r0, #26]
 c002770:	e5d1501a 	ldrb	r5, [r1, #26]
 c002774:	e1550006 	cmp	r5, r6
				return TABLEROS_NO_IGUALES;
 c002778:	13a00000 	movne	r0, #0
	int i = 0;
	int j = 0;

	for (i = 0; i < DIM; i++) {
		for (j = 0; j < DIM; j++) {
			if(tablero1[i][j] != tablero2[i][j] || tablero2[i][j] != tablero3[i][j] || tablero1[i][j] != tablero3[i][j]){
 c00277c:	1a000153 	bne	c002cd0 <comprobar_tableros+0x910>
 c002780:	e5d2601a 	ldrb	r6, [r2, #26]
 c002784:	e1560005 	cmp	r6, r5
				return TABLEROS_NO_IGUALES;
 c002788:	13a00000 	movne	r0, #0
	int i = 0;
	int j = 0;

	for (i = 0; i < DIM; i++) {
		for (j = 0; j < DIM; j++) {
			if(tablero1[i][j] != tablero2[i][j] || tablero2[i][j] != tablero3[i][j] || tablero1[i][j] != tablero3[i][j]){
 c00278c:	1a00014f 	bne	c002cd0 <comprobar_tableros+0x910>
 c002790:	e5d0601b 	ldrb	r6, [r0, #27]
 c002794:	e5d1501b 	ldrb	r5, [r1, #27]
 c002798:	e1550006 	cmp	r5, r6
				return TABLEROS_NO_IGUALES;
 c00279c:	13a00000 	movne	r0, #0
	int i = 0;
	int j = 0;

	for (i = 0; i < DIM; i++) {
		for (j = 0; j < DIM; j++) {
			if(tablero1[i][j] != tablero2[i][j] || tablero2[i][j] != tablero3[i][j] || tablero1[i][j] != tablero3[i][j]){
 c0027a0:	1a00014a 	bne	c002cd0 <comprobar_tableros+0x910>
 c0027a4:	e5d2601b 	ldrb	r6, [r2, #27]
 c0027a8:	e1560005 	cmp	r6, r5
				return TABLEROS_NO_IGUALES;
 c0027ac:	13a00000 	movne	r0, #0
	int i = 0;
	int j = 0;

	for (i = 0; i < DIM; i++) {
		for (j = 0; j < DIM; j++) {
			if(tablero1[i][j] != tablero2[i][j] || tablero2[i][j] != tablero3[i][j] || tablero1[i][j] != tablero3[i][j]){
 c0027b0:	1a000146 	bne	c002cd0 <comprobar_tableros+0x910>
 c0027b4:	e5d0601c 	ldrb	r6, [r0, #28]
 c0027b8:	e5d1501c 	ldrb	r5, [r1, #28]
 c0027bc:	e1550006 	cmp	r5, r6
				return TABLEROS_NO_IGUALES;
 c0027c0:	13a00000 	movne	r0, #0
	int i = 0;
	int j = 0;

	for (i = 0; i < DIM; i++) {
		for (j = 0; j < DIM; j++) {
			if(tablero1[i][j] != tablero2[i][j] || tablero2[i][j] != tablero3[i][j] || tablero1[i][j] != tablero3[i][j]){
 c0027c4:	1a000141 	bne	c002cd0 <comprobar_tableros+0x910>
 c0027c8:	e5d2601c 	ldrb	r6, [r2, #28]
 c0027cc:	e1560005 	cmp	r6, r5
				return TABLEROS_NO_IGUALES;
 c0027d0:	13a00000 	movne	r0, #0
	int i = 0;
	int j = 0;

	for (i = 0; i < DIM; i++) {
		for (j = 0; j < DIM; j++) {
			if(tablero1[i][j] != tablero2[i][j] || tablero2[i][j] != tablero3[i][j] || tablero1[i][j] != tablero3[i][j]){
 c0027d4:	1a00013d 	bne	c002cd0 <comprobar_tableros+0x910>
 c0027d8:	e5d0601d 	ldrb	r6, [r0, #29]
 c0027dc:	e5d1501d 	ldrb	r5, [r1, #29]
 c0027e0:	e1550006 	cmp	r5, r6
				return TABLEROS_NO_IGUALES;
 c0027e4:	13a00000 	movne	r0, #0
	int i = 0;
	int j = 0;

	for (i = 0; i < DIM; i++) {
		for (j = 0; j < DIM; j++) {
			if(tablero1[i][j] != tablero2[i][j] || tablero2[i][j] != tablero3[i][j] || tablero1[i][j] != tablero3[i][j]){
 c0027e8:	1a000138 	bne	c002cd0 <comprobar_tableros+0x910>
 c0027ec:	e5d2601d 	ldrb	r6, [r2, #29]
 c0027f0:	e1560005 	cmp	r6, r5
				return TABLEROS_NO_IGUALES;
 c0027f4:	13a00000 	movne	r0, #0
	int i = 0;
	int j = 0;

	for (i = 0; i < DIM; i++) {
		for (j = 0; j < DIM; j++) {
			if(tablero1[i][j] != tablero2[i][j] || tablero2[i][j] != tablero3[i][j] || tablero1[i][j] != tablero3[i][j]){
 c0027f8:	1a000134 	bne	c002cd0 <comprobar_tableros+0x910>
 c0027fc:	e5d0601e 	ldrb	r6, [r0, #30]
 c002800:	e5d1501e 	ldrb	r5, [r1, #30]
 c002804:	e1550006 	cmp	r5, r6
				return TABLEROS_NO_IGUALES;
 c002808:	13a00000 	movne	r0, #0
	int i = 0;
	int j = 0;

	for (i = 0; i < DIM; i++) {
		for (j = 0; j < DIM; j++) {
			if(tablero1[i][j] != tablero2[i][j] || tablero2[i][j] != tablero3[i][j] || tablero1[i][j] != tablero3[i][j]){
 c00280c:	1a00012f 	bne	c002cd0 <comprobar_tableros+0x910>
 c002810:	e5d2601e 	ldrb	r6, [r2, #30]
 c002814:	e1560005 	cmp	r6, r5
				return TABLEROS_NO_IGUALES;
 c002818:	13a00000 	movne	r0, #0
	int i = 0;
	int j = 0;

	for (i = 0; i < DIM; i++) {
		for (j = 0; j < DIM; j++) {
			if(tablero1[i][j] != tablero2[i][j] || tablero2[i][j] != tablero3[i][j] || tablero1[i][j] != tablero3[i][j]){
 c00281c:	1a00012b 	bne	c002cd0 <comprobar_tableros+0x910>
 c002820:	e5d0c01f 	ldrb	ip, [r0, #31]
 c002824:	e5d1301f 	ldrb	r3, [r1, #31]
 c002828:	e153000c 	cmp	r3, ip
				return TABLEROS_NO_IGUALES;
 c00282c:	13a00000 	movne	r0, #0
	int i = 0;
	int j = 0;

	for (i = 0; i < DIM; i++) {
		for (j = 0; j < DIM; j++) {
			if(tablero1[i][j] != tablero2[i][j] || tablero2[i][j] != tablero3[i][j] || tablero1[i][j] != tablero3[i][j]){
 c002830:	1a000126 	bne	c002cd0 <comprobar_tableros+0x910>
 c002834:	e5d2c01f 	ldrb	ip, [r2, #31]
 c002838:	e15c0003 	cmp	ip, r3
				return TABLEROS_NO_IGUALES;
 c00283c:	13a00000 	movne	r0, #0
	int i = 0;
	int j = 0;

	for (i = 0; i < DIM; i++) {
		for (j = 0; j < DIM; j++) {
			if(tablero1[i][j] != tablero2[i][j] || tablero2[i][j] != tablero3[i][j] || tablero1[i][j] != tablero3[i][j]){
 c002840:	1a000122 	bne	c002cd0 <comprobar_tableros+0x910>
 c002844:	e5d03020 	ldrb	r3, [r0, #32]
 c002848:	e5d14020 	ldrb	r4, [r1, #32]
 c00284c:	e1540003 	cmp	r4, r3
				return TABLEROS_NO_IGUALES;
 c002850:	13a00000 	movne	r0, #0
	int i = 0;
	int j = 0;

	for (i = 0; i < DIM; i++) {
		for (j = 0; j < DIM; j++) {
			if(tablero1[i][j] != tablero2[i][j] || tablero2[i][j] != tablero3[i][j] || tablero1[i][j] != tablero3[i][j]){
 c002854:	1a00011d 	bne	c002cd0 <comprobar_tableros+0x910>
 c002858:	e5d25020 	ldrb	r5, [r2, #32]
 c00285c:	e1550004 	cmp	r5, r4
				return TABLEROS_NO_IGUALES;
 c002860:	13a00000 	movne	r0, #0
	int i = 0;
	int j = 0;

	for (i = 0; i < DIM; i++) {
		for (j = 0; j < DIM; j++) {
			if(tablero1[i][j] != tablero2[i][j] || tablero2[i][j] != tablero3[i][j] || tablero1[i][j] != tablero3[i][j]){
 c002864:	1a000119 	bne	c002cd0 <comprobar_tableros+0x910>
 c002868:	e5d06021 	ldrb	r6, [r0, #33]	; 0x21
 c00286c:	e5d15021 	ldrb	r5, [r1, #33]	; 0x21
 c002870:	e1550006 	cmp	r5, r6
				return TABLEROS_NO_IGUALES;
 c002874:	13a00000 	movne	r0, #0
	int i = 0;
	int j = 0;

	for (i = 0; i < DIM; i++) {
		for (j = 0; j < DIM; j++) {
			if(tablero1[i][j] != tablero2[i][j] || tablero2[i][j] != tablero3[i][j] || tablero1[i][j] != tablero3[i][j]){
 c002878:	1a000114 	bne	c002cd0 <comprobar_tableros+0x910>
 c00287c:	e5d26021 	ldrb	r6, [r2, #33]	; 0x21
 c002880:	e1560005 	cmp	r6, r5
				return TABLEROS_NO_IGUALES;
 c002884:	13a00000 	movne	r0, #0
	int i = 0;
	int j = 0;

	for (i = 0; i < DIM; i++) {
		for (j = 0; j < DIM; j++) {
			if(tablero1[i][j] != tablero2[i][j] || tablero2[i][j] != tablero3[i][j] || tablero1[i][j] != tablero3[i][j]){
 c002888:	1a000110 	bne	c002cd0 <comprobar_tableros+0x910>
 c00288c:	e5d06022 	ldrb	r6, [r0, #34]	; 0x22
 c002890:	e5d15022 	ldrb	r5, [r1, #34]	; 0x22
 c002894:	e1550006 	cmp	r5, r6
				return TABLEROS_NO_IGUALES;
 c002898:	13a00000 	movne	r0, #0
	int i = 0;
	int j = 0;

	for (i = 0; i < DIM; i++) {
		for (j = 0; j < DIM; j++) {
			if(tablero1[i][j] != tablero2[i][j] || tablero2[i][j] != tablero3[i][j] || tablero1[i][j] != tablero3[i][j]){
 c00289c:	1a00010b 	bne	c002cd0 <comprobar_tableros+0x910>
 c0028a0:	e5d26022 	ldrb	r6, [r2, #34]	; 0x22
 c0028a4:	e1560005 	cmp	r6, r5
				return TABLEROS_NO_IGUALES;
 c0028a8:	13a00000 	movne	r0, #0
	int i = 0;
	int j = 0;

	for (i = 0; i < DIM; i++) {
		for (j = 0; j < DIM; j++) {
			if(tablero1[i][j] != tablero2[i][j] || tablero2[i][j] != tablero3[i][j] || tablero1[i][j] != tablero3[i][j]){
 c0028ac:	1a000107 	bne	c002cd0 <comprobar_tableros+0x910>
 c0028b0:	e5d06023 	ldrb	r6, [r0, #35]	; 0x23
 c0028b4:	e5d15023 	ldrb	r5, [r1, #35]	; 0x23
 c0028b8:	e1550006 	cmp	r5, r6
				return TABLEROS_NO_IGUALES;
 c0028bc:	13a00000 	movne	r0, #0
	int i = 0;
	int j = 0;

	for (i = 0; i < DIM; i++) {
		for (j = 0; j < DIM; j++) {
			if(tablero1[i][j] != tablero2[i][j] || tablero2[i][j] != tablero3[i][j] || tablero1[i][j] != tablero3[i][j]){
 c0028c0:	1a000102 	bne	c002cd0 <comprobar_tableros+0x910>
 c0028c4:	e5d26023 	ldrb	r6, [r2, #35]	; 0x23
 c0028c8:	e1560005 	cmp	r6, r5
				return TABLEROS_NO_IGUALES;
 c0028cc:	13a00000 	movne	r0, #0
	int i = 0;
	int j = 0;

	for (i = 0; i < DIM; i++) {
		for (j = 0; j < DIM; j++) {
			if(tablero1[i][j] != tablero2[i][j] || tablero2[i][j] != tablero3[i][j] || tablero1[i][j] != tablero3[i][j]){
 c0028d0:	1a0000fe 	bne	c002cd0 <comprobar_tableros+0x910>
 c0028d4:	e5d06024 	ldrb	r6, [r0, #36]	; 0x24
 c0028d8:	e5d15024 	ldrb	r5, [r1, #36]	; 0x24
 c0028dc:	e1550006 	cmp	r5, r6
				return TABLEROS_NO_IGUALES;
 c0028e0:	13a00000 	movne	r0, #0
	int i = 0;
	int j = 0;

	for (i = 0; i < DIM; i++) {
		for (j = 0; j < DIM; j++) {
			if(tablero1[i][j] != tablero2[i][j] || tablero2[i][j] != tablero3[i][j] || tablero1[i][j] != tablero3[i][j]){
 c0028e4:	1a0000f9 	bne	c002cd0 <comprobar_tableros+0x910>
 c0028e8:	e5d26024 	ldrb	r6, [r2, #36]	; 0x24
 c0028ec:	e1560005 	cmp	r6, r5
				return TABLEROS_NO_IGUALES;
 c0028f0:	13a00000 	movne	r0, #0
	int i = 0;
	int j = 0;

	for (i = 0; i < DIM; i++) {
		for (j = 0; j < DIM; j++) {
			if(tablero1[i][j] != tablero2[i][j] || tablero2[i][j] != tablero3[i][j] || tablero1[i][j] != tablero3[i][j]){
 c0028f4:	1a0000f5 	bne	c002cd0 <comprobar_tableros+0x910>
 c0028f8:	e5d06025 	ldrb	r6, [r0, #37]	; 0x25
 c0028fc:	e5d15025 	ldrb	r5, [r1, #37]	; 0x25
 c002900:	e1550006 	cmp	r5, r6
				return TABLEROS_NO_IGUALES;
 c002904:	13a00000 	movne	r0, #0
	int i = 0;
	int j = 0;

	for (i = 0; i < DIM; i++) {
		for (j = 0; j < DIM; j++) {
			if(tablero1[i][j] != tablero2[i][j] || tablero2[i][j] != tablero3[i][j] || tablero1[i][j] != tablero3[i][j]){
 c002908:	1a0000f0 	bne	c002cd0 <comprobar_tableros+0x910>
 c00290c:	e5d26025 	ldrb	r6, [r2, #37]	; 0x25
 c002910:	e1560005 	cmp	r6, r5
				return TABLEROS_NO_IGUALES;
 c002914:	13a00000 	movne	r0, #0
	int i = 0;
	int j = 0;

	for (i = 0; i < DIM; i++) {
		for (j = 0; j < DIM; j++) {
			if(tablero1[i][j] != tablero2[i][j] || tablero2[i][j] != tablero3[i][j] || tablero1[i][j] != tablero3[i][j]){
 c002918:	1a0000ec 	bne	c002cd0 <comprobar_tableros+0x910>
 c00291c:	e5d06026 	ldrb	r6, [r0, #38]	; 0x26
 c002920:	e5d15026 	ldrb	r5, [r1, #38]	; 0x26
 c002924:	e1550006 	cmp	r5, r6
				return TABLEROS_NO_IGUALES;
 c002928:	13a00000 	movne	r0, #0
	int i = 0;
	int j = 0;

	for (i = 0; i < DIM; i++) {
		for (j = 0; j < DIM; j++) {
			if(tablero1[i][j] != tablero2[i][j] || tablero2[i][j] != tablero3[i][j] || tablero1[i][j] != tablero3[i][j]){
 c00292c:	1a0000e7 	bne	c002cd0 <comprobar_tableros+0x910>
 c002930:	e5d26026 	ldrb	r6, [r2, #38]	; 0x26
 c002934:	e1560005 	cmp	r6, r5
				return TABLEROS_NO_IGUALES;
 c002938:	13a00000 	movne	r0, #0
	int i = 0;
	int j = 0;

	for (i = 0; i < DIM; i++) {
		for (j = 0; j < DIM; j++) {
			if(tablero1[i][j] != tablero2[i][j] || tablero2[i][j] != tablero3[i][j] || tablero1[i][j] != tablero3[i][j]){
 c00293c:	1a0000e3 	bne	c002cd0 <comprobar_tableros+0x910>
 c002940:	e5d0c027 	ldrb	ip, [r0, #39]	; 0x27
 c002944:	e5d13027 	ldrb	r3, [r1, #39]	; 0x27
 c002948:	e153000c 	cmp	r3, ip
				return TABLEROS_NO_IGUALES;
 c00294c:	13a00000 	movne	r0, #0
	int i = 0;
	int j = 0;

	for (i = 0; i < DIM; i++) {
		for (j = 0; j < DIM; j++) {
			if(tablero1[i][j] != tablero2[i][j] || tablero2[i][j] != tablero3[i][j] || tablero1[i][j] != tablero3[i][j]){
 c002950:	1a0000de 	bne	c002cd0 <comprobar_tableros+0x910>
 c002954:	e5d2c027 	ldrb	ip, [r2, #39]	; 0x27
 c002958:	e15c0003 	cmp	ip, r3
				return TABLEROS_NO_IGUALES;
 c00295c:	13a00000 	movne	r0, #0
	int i = 0;
	int j = 0;

	for (i = 0; i < DIM; i++) {
		for (j = 0; j < DIM; j++) {
			if(tablero1[i][j] != tablero2[i][j] || tablero2[i][j] != tablero3[i][j] || tablero1[i][j] != tablero3[i][j]){
 c002960:	1a0000da 	bne	c002cd0 <comprobar_tableros+0x910>
 c002964:	e5d03028 	ldrb	r3, [r0, #40]	; 0x28
 c002968:	e5d14028 	ldrb	r4, [r1, #40]	; 0x28
 c00296c:	e1540003 	cmp	r4, r3
				return TABLEROS_NO_IGUALES;
 c002970:	13a00000 	movne	r0, #0
	int i = 0;
	int j = 0;

	for (i = 0; i < DIM; i++) {
		for (j = 0; j < DIM; j++) {
			if(tablero1[i][j] != tablero2[i][j] || tablero2[i][j] != tablero3[i][j] || tablero1[i][j] != tablero3[i][j]){
 c002974:	1a0000d5 	bne	c002cd0 <comprobar_tableros+0x910>
 c002978:	e5d25028 	ldrb	r5, [r2, #40]	; 0x28
 c00297c:	e1550004 	cmp	r5, r4
				return TABLEROS_NO_IGUALES;
 c002980:	13a00000 	movne	r0, #0
	int i = 0;
	int j = 0;

	for (i = 0; i < DIM; i++) {
		for (j = 0; j < DIM; j++) {
			if(tablero1[i][j] != tablero2[i][j] || tablero2[i][j] != tablero3[i][j] || tablero1[i][j] != tablero3[i][j]){
 c002984:	1a0000d1 	bne	c002cd0 <comprobar_tableros+0x910>
 c002988:	e5d06029 	ldrb	r6, [r0, #41]	; 0x29
 c00298c:	e5d15029 	ldrb	r5, [r1, #41]	; 0x29
 c002990:	e1550006 	cmp	r5, r6
				return TABLEROS_NO_IGUALES;
 c002994:	13a00000 	movne	r0, #0
	int i = 0;
	int j = 0;

	for (i = 0; i < DIM; i++) {
		for (j = 0; j < DIM; j++) {
			if(tablero1[i][j] != tablero2[i][j] || tablero2[i][j] != tablero3[i][j] || tablero1[i][j] != tablero3[i][j]){
 c002998:	1a0000cc 	bne	c002cd0 <comprobar_tableros+0x910>
 c00299c:	e5d26029 	ldrb	r6, [r2, #41]	; 0x29
 c0029a0:	e1560005 	cmp	r6, r5
				return TABLEROS_NO_IGUALES;
 c0029a4:	13a00000 	movne	r0, #0
	int i = 0;
	int j = 0;

	for (i = 0; i < DIM; i++) {
		for (j = 0; j < DIM; j++) {
			if(tablero1[i][j] != tablero2[i][j] || tablero2[i][j] != tablero3[i][j] || tablero1[i][j] != tablero3[i][j]){
 c0029a8:	1a0000c8 	bne	c002cd0 <comprobar_tableros+0x910>
 c0029ac:	e5d0602a 	ldrb	r6, [r0, #42]	; 0x2a
 c0029b0:	e5d1502a 	ldrb	r5, [r1, #42]	; 0x2a
 c0029b4:	e1550006 	cmp	r5, r6
				return TABLEROS_NO_IGUALES;
 c0029b8:	13a00000 	movne	r0, #0
	int i = 0;
	int j = 0;

	for (i = 0; i < DIM; i++) {
		for (j = 0; j < DIM; j++) {
			if(tablero1[i][j] != tablero2[i][j] || tablero2[i][j] != tablero3[i][j] || tablero1[i][j] != tablero3[i][j]){
 c0029bc:	1a0000c3 	bne	c002cd0 <comprobar_tableros+0x910>
 c0029c0:	e5d2602a 	ldrb	r6, [r2, #42]	; 0x2a
 c0029c4:	e1560005 	cmp	r6, r5
				return TABLEROS_NO_IGUALES;
 c0029c8:	13a00000 	movne	r0, #0
	int i = 0;
	int j = 0;

	for (i = 0; i < DIM; i++) {
		for (j = 0; j < DIM; j++) {
			if(tablero1[i][j] != tablero2[i][j] || tablero2[i][j] != tablero3[i][j] || tablero1[i][j] != tablero3[i][j]){
 c0029cc:	1a0000bf 	bne	c002cd0 <comprobar_tableros+0x910>
 c0029d0:	e5d0602b 	ldrb	r6, [r0, #43]	; 0x2b
 c0029d4:	e5d1502b 	ldrb	r5, [r1, #43]	; 0x2b
 c0029d8:	e1550006 	cmp	r5, r6
				return TABLEROS_NO_IGUALES;
 c0029dc:	13a00000 	movne	r0, #0
	int i = 0;
	int j = 0;

	for (i = 0; i < DIM; i++) {
		for (j = 0; j < DIM; j++) {
			if(tablero1[i][j] != tablero2[i][j] || tablero2[i][j] != tablero3[i][j] || tablero1[i][j] != tablero3[i][j]){
 c0029e0:	1a0000ba 	bne	c002cd0 <comprobar_tableros+0x910>
 c0029e4:	e5d2602b 	ldrb	r6, [r2, #43]	; 0x2b
 c0029e8:	e1560005 	cmp	r6, r5
				return TABLEROS_NO_IGUALES;
 c0029ec:	13a00000 	movne	r0, #0
	int i = 0;
	int j = 0;

	for (i = 0; i < DIM; i++) {
		for (j = 0; j < DIM; j++) {
			if(tablero1[i][j] != tablero2[i][j] || tablero2[i][j] != tablero3[i][j] || tablero1[i][j] != tablero3[i][j]){
 c0029f0:	1a0000b6 	bne	c002cd0 <comprobar_tableros+0x910>
 c0029f4:	e5d0602c 	ldrb	r6, [r0, #44]	; 0x2c
 c0029f8:	e5d1502c 	ldrb	r5, [r1, #44]	; 0x2c
 c0029fc:	e1550006 	cmp	r5, r6
				return TABLEROS_NO_IGUALES;
 c002a00:	13a00000 	movne	r0, #0
	int i = 0;
	int j = 0;

	for (i = 0; i < DIM; i++) {
		for (j = 0; j < DIM; j++) {
			if(tablero1[i][j] != tablero2[i][j] || tablero2[i][j] != tablero3[i][j] || tablero1[i][j] != tablero3[i][j]){
 c002a04:	1a0000b1 	bne	c002cd0 <comprobar_tableros+0x910>
 c002a08:	e5d2602c 	ldrb	r6, [r2, #44]	; 0x2c
 c002a0c:	e1560005 	cmp	r6, r5
				return TABLEROS_NO_IGUALES;
 c002a10:	13a00000 	movne	r0, #0
	int i = 0;
	int j = 0;

	for (i = 0; i < DIM; i++) {
		for (j = 0; j < DIM; j++) {
			if(tablero1[i][j] != tablero2[i][j] || tablero2[i][j] != tablero3[i][j] || tablero1[i][j] != tablero3[i][j]){
 c002a14:	1a0000ad 	bne	c002cd0 <comprobar_tableros+0x910>
 c002a18:	e5d0602d 	ldrb	r6, [r0, #45]	; 0x2d
 c002a1c:	e5d1502d 	ldrb	r5, [r1, #45]	; 0x2d
 c002a20:	e1550006 	cmp	r5, r6
				return TABLEROS_NO_IGUALES;
 c002a24:	13a00000 	movne	r0, #0
	int i = 0;
	int j = 0;

	for (i = 0; i < DIM; i++) {
		for (j = 0; j < DIM; j++) {
			if(tablero1[i][j] != tablero2[i][j] || tablero2[i][j] != tablero3[i][j] || tablero1[i][j] != tablero3[i][j]){
 c002a28:	1a0000a8 	bne	c002cd0 <comprobar_tableros+0x910>
 c002a2c:	e5d2602d 	ldrb	r6, [r2, #45]	; 0x2d
 c002a30:	e1560005 	cmp	r6, r5
				return TABLEROS_NO_IGUALES;
 c002a34:	13a00000 	movne	r0, #0
	int i = 0;
	int j = 0;

	for (i = 0; i < DIM; i++) {
		for (j = 0; j < DIM; j++) {
			if(tablero1[i][j] != tablero2[i][j] || tablero2[i][j] != tablero3[i][j] || tablero1[i][j] != tablero3[i][j]){
 c002a38:	1a0000a4 	bne	c002cd0 <comprobar_tableros+0x910>
 c002a3c:	e5d0602e 	ldrb	r6, [r0, #46]	; 0x2e
 c002a40:	e5d1502e 	ldrb	r5, [r1, #46]	; 0x2e
 c002a44:	e1550006 	cmp	r5, r6
				return TABLEROS_NO_IGUALES;
 c002a48:	13a00000 	movne	r0, #0
	int i = 0;
	int j = 0;

	for (i = 0; i < DIM; i++) {
		for (j = 0; j < DIM; j++) {
			if(tablero1[i][j] != tablero2[i][j] || tablero2[i][j] != tablero3[i][j] || tablero1[i][j] != tablero3[i][j]){
 c002a4c:	1a00009f 	bne	c002cd0 <comprobar_tableros+0x910>
 c002a50:	e5d2602e 	ldrb	r6, [r2, #46]	; 0x2e
 c002a54:	e1560005 	cmp	r6, r5
				return TABLEROS_NO_IGUALES;
 c002a58:	13a00000 	movne	r0, #0
	int i = 0;
	int j = 0;

	for (i = 0; i < DIM; i++) {
		for (j = 0; j < DIM; j++) {
			if(tablero1[i][j] != tablero2[i][j] || tablero2[i][j] != tablero3[i][j] || tablero1[i][j] != tablero3[i][j]){
 c002a5c:	1a00009b 	bne	c002cd0 <comprobar_tableros+0x910>
 c002a60:	e5d0c02f 	ldrb	ip, [r0, #47]	; 0x2f
 c002a64:	e5d1302f 	ldrb	r3, [r1, #47]	; 0x2f
 c002a68:	e153000c 	cmp	r3, ip
				return TABLEROS_NO_IGUALES;
 c002a6c:	13a00000 	movne	r0, #0
	int i = 0;
	int j = 0;

	for (i = 0; i < DIM; i++) {
		for (j = 0; j < DIM; j++) {
			if(tablero1[i][j] != tablero2[i][j] || tablero2[i][j] != tablero3[i][j] || tablero1[i][j] != tablero3[i][j]){
 c002a70:	1a000096 	bne	c002cd0 <comprobar_tableros+0x910>
 c002a74:	e5d2c02f 	ldrb	ip, [r2, #47]	; 0x2f
 c002a78:	e15c0003 	cmp	ip, r3
				return TABLEROS_NO_IGUALES;
 c002a7c:	13a00000 	movne	r0, #0
	int i = 0;
	int j = 0;

	for (i = 0; i < DIM; i++) {
		for (j = 0; j < DIM; j++) {
			if(tablero1[i][j] != tablero2[i][j] || tablero2[i][j] != tablero3[i][j] || tablero1[i][j] != tablero3[i][j]){
 c002a80:	1a000092 	bne	c002cd0 <comprobar_tableros+0x910>
 c002a84:	e5d0c030 	ldrb	ip, [r0, #48]	; 0x30
 c002a88:	e5d13030 	ldrb	r3, [r1, #48]	; 0x30
 c002a8c:	e153000c 	cmp	r3, ip
				return TABLEROS_NO_IGUALES;
 c002a90:	13a00000 	movne	r0, #0
	int i = 0;
	int j = 0;

	for (i = 0; i < DIM; i++) {
		for (j = 0; j < DIM; j++) {
			if(tablero1[i][j] != tablero2[i][j] || tablero2[i][j] != tablero3[i][j] || tablero1[i][j] != tablero3[i][j]){
 c002a94:	1a00008d 	bne	c002cd0 <comprobar_tableros+0x910>
 c002a98:	e5d25030 	ldrb	r5, [r2, #48]	; 0x30
 c002a9c:	e1550003 	cmp	r5, r3
				return TABLEROS_NO_IGUALES;
 c002aa0:	13a00000 	movne	r0, #0
	int i = 0;
	int j = 0;

	for (i = 0; i < DIM; i++) {
		for (j = 0; j < DIM; j++) {
			if(tablero1[i][j] != tablero2[i][j] || tablero2[i][j] != tablero3[i][j] || tablero1[i][j] != tablero3[i][j]){
 c002aa4:	1a000089 	bne	c002cd0 <comprobar_tableros+0x910>
 c002aa8:	e5d06031 	ldrb	r6, [r0, #49]	; 0x31
 c002aac:	e5d15031 	ldrb	r5, [r1, #49]	; 0x31
 c002ab0:	e1550006 	cmp	r5, r6
				return TABLEROS_NO_IGUALES;
 c002ab4:	13a00000 	movne	r0, #0
	int i = 0;
	int j = 0;

	for (i = 0; i < DIM; i++) {
		for (j = 0; j < DIM; j++) {
			if(tablero1[i][j] != tablero2[i][j] || tablero2[i][j] != tablero3[i][j] || tablero1[i][j] != tablero3[i][j]){
 c002ab8:	1a000084 	bne	c002cd0 <comprobar_tableros+0x910>
 c002abc:	e5d26031 	ldrb	r6, [r2, #49]	; 0x31
 c002ac0:	e1560005 	cmp	r6, r5
				return TABLEROS_NO_IGUALES;
 c002ac4:	13a00000 	movne	r0, #0
	int i = 0;
	int j = 0;

	for (i = 0; i < DIM; i++) {
		for (j = 0; j < DIM; j++) {
			if(tablero1[i][j] != tablero2[i][j] || tablero2[i][j] != tablero3[i][j] || tablero1[i][j] != tablero3[i][j]){
 c002ac8:	1a000080 	bne	c002cd0 <comprobar_tableros+0x910>
 c002acc:	e5d06032 	ldrb	r6, [r0, #50]	; 0x32
 c002ad0:	e5d15032 	ldrb	r5, [r1, #50]	; 0x32
 c002ad4:	e1550006 	cmp	r5, r6
				return TABLEROS_NO_IGUALES;
 c002ad8:	13a00000 	movne	r0, #0
	int i = 0;
	int j = 0;

	for (i = 0; i < DIM; i++) {
		for (j = 0; j < DIM; j++) {
			if(tablero1[i][j] != tablero2[i][j] || tablero2[i][j] != tablero3[i][j] || tablero1[i][j] != tablero3[i][j]){
 c002adc:	1a00007b 	bne	c002cd0 <comprobar_tableros+0x910>
 c002ae0:	e5d26032 	ldrb	r6, [r2, #50]	; 0x32
 c002ae4:	e1560005 	cmp	r6, r5
				return TABLEROS_NO_IGUALES;
 c002ae8:	13a00000 	movne	r0, #0
	int i = 0;
	int j = 0;

	for (i = 0; i < DIM; i++) {
		for (j = 0; j < DIM; j++) {
			if(tablero1[i][j] != tablero2[i][j] || tablero2[i][j] != tablero3[i][j] || tablero1[i][j] != tablero3[i][j]){
 c002aec:	1a000077 	bne	c002cd0 <comprobar_tableros+0x910>
 c002af0:	e5d06033 	ldrb	r6, [r0, #51]	; 0x33
 c002af4:	e5d15033 	ldrb	r5, [r1, #51]	; 0x33
 c002af8:	e1550006 	cmp	r5, r6
				return TABLEROS_NO_IGUALES;
 c002afc:	13a00000 	movne	r0, #0
	int i = 0;
	int j = 0;

	for (i = 0; i < DIM; i++) {
		for (j = 0; j < DIM; j++) {
			if(tablero1[i][j] != tablero2[i][j] || tablero2[i][j] != tablero3[i][j] || tablero1[i][j] != tablero3[i][j]){
 c002b00:	1a000072 	bne	c002cd0 <comprobar_tableros+0x910>
 c002b04:	e5d26033 	ldrb	r6, [r2, #51]	; 0x33
 c002b08:	e1560005 	cmp	r6, r5
				return TABLEROS_NO_IGUALES;
 c002b0c:	13a00000 	movne	r0, #0
	int i = 0;
	int j = 0;

	for (i = 0; i < DIM; i++) {
		for (j = 0; j < DIM; j++) {
			if(tablero1[i][j] != tablero2[i][j] || tablero2[i][j] != tablero3[i][j] || tablero1[i][j] != tablero3[i][j]){
 c002b10:	1a00006e 	bne	c002cd0 <comprobar_tableros+0x910>
 c002b14:	e5d06034 	ldrb	r6, [r0, #52]	; 0x34
 c002b18:	e5d15034 	ldrb	r5, [r1, #52]	; 0x34
 c002b1c:	e1550006 	cmp	r5, r6
				return TABLEROS_NO_IGUALES;
 c002b20:	13a00000 	movne	r0, #0
	int i = 0;
	int j = 0;

	for (i = 0; i < DIM; i++) {
		for (j = 0; j < DIM; j++) {
			if(tablero1[i][j] != tablero2[i][j] || tablero2[i][j] != tablero3[i][j] || tablero1[i][j] != tablero3[i][j]){
 c002b24:	1a000069 	bne	c002cd0 <comprobar_tableros+0x910>
 c002b28:	e5d26034 	ldrb	r6, [r2, #52]	; 0x34
 c002b2c:	e1560005 	cmp	r6, r5
				return TABLEROS_NO_IGUALES;
 c002b30:	13a00000 	movne	r0, #0
	int i = 0;
	int j = 0;

	for (i = 0; i < DIM; i++) {
		for (j = 0; j < DIM; j++) {
			if(tablero1[i][j] != tablero2[i][j] || tablero2[i][j] != tablero3[i][j] || tablero1[i][j] != tablero3[i][j]){
 c002b34:	1a000065 	bne	c002cd0 <comprobar_tableros+0x910>
 c002b38:	e5d06035 	ldrb	r6, [r0, #53]	; 0x35
 c002b3c:	e5d15035 	ldrb	r5, [r1, #53]	; 0x35
 c002b40:	e1550006 	cmp	r5, r6
				return TABLEROS_NO_IGUALES;
 c002b44:	13a00000 	movne	r0, #0
	int i = 0;
	int j = 0;

	for (i = 0; i < DIM; i++) {
		for (j = 0; j < DIM; j++) {
			if(tablero1[i][j] != tablero2[i][j] || tablero2[i][j] != tablero3[i][j] || tablero1[i][j] != tablero3[i][j]){
 c002b48:	1a000060 	bne	c002cd0 <comprobar_tableros+0x910>
 c002b4c:	e5d26035 	ldrb	r6, [r2, #53]	; 0x35
 c002b50:	e1560005 	cmp	r6, r5
				return TABLEROS_NO_IGUALES;
 c002b54:	13a00000 	movne	r0, #0
	int i = 0;
	int j = 0;

	for (i = 0; i < DIM; i++) {
		for (j = 0; j < DIM; j++) {
			if(tablero1[i][j] != tablero2[i][j] || tablero2[i][j] != tablero3[i][j] || tablero1[i][j] != tablero3[i][j]){
 c002b58:	1a00005c 	bne	c002cd0 <comprobar_tableros+0x910>
 c002b5c:	e5d06036 	ldrb	r6, [r0, #54]	; 0x36
 c002b60:	e5d15036 	ldrb	r5, [r1, #54]	; 0x36
 c002b64:	e1550006 	cmp	r5, r6
				return TABLEROS_NO_IGUALES;
 c002b68:	13a00000 	movne	r0, #0
	int i = 0;
	int j = 0;

	for (i = 0; i < DIM; i++) {
		for (j = 0; j < DIM; j++) {
			if(tablero1[i][j] != tablero2[i][j] || tablero2[i][j] != tablero3[i][j] || tablero1[i][j] != tablero3[i][j]){
 c002b6c:	1a000057 	bne	c002cd0 <comprobar_tableros+0x910>
 c002b70:	e5d26036 	ldrb	r6, [r2, #54]	; 0x36
 c002b74:	e1560005 	cmp	r6, r5
				return TABLEROS_NO_IGUALES;
 c002b78:	13a00000 	movne	r0, #0
	int i = 0;
	int j = 0;

	for (i = 0; i < DIM; i++) {
		for (j = 0; j < DIM; j++) {
			if(tablero1[i][j] != tablero2[i][j] || tablero2[i][j] != tablero3[i][j] || tablero1[i][j] != tablero3[i][j]){
 c002b7c:	1a000053 	bne	c002cd0 <comprobar_tableros+0x910>
 c002b80:	e5d04037 	ldrb	r4, [r0, #55]	; 0x37
 c002b84:	e5d1c037 	ldrb	ip, [r1, #55]	; 0x37
 c002b88:	e15c0004 	cmp	ip, r4
				return TABLEROS_NO_IGUALES;
 c002b8c:	13a00000 	movne	r0, #0
	int i = 0;
	int j = 0;

	for (i = 0; i < DIM; i++) {
		for (j = 0; j < DIM; j++) {
			if(tablero1[i][j] != tablero2[i][j] || tablero2[i][j] != tablero3[i][j] || tablero1[i][j] != tablero3[i][j]){
 c002b90:	1a00004e 	bne	c002cd0 <comprobar_tableros+0x910>
 c002b94:	e5d23037 	ldrb	r3, [r2, #55]	; 0x37
 c002b98:	e153000c 	cmp	r3, ip
				return TABLEROS_NO_IGUALES;
 c002b9c:	13a00000 	movne	r0, #0
	int i = 0;
	int j = 0;

	for (i = 0; i < DIM; i++) {
		for (j = 0; j < DIM; j++) {
			if(tablero1[i][j] != tablero2[i][j] || tablero2[i][j] != tablero3[i][j] || tablero1[i][j] != tablero3[i][j]){
 c002ba0:	1a00004a 	bne	c002cd0 <comprobar_tableros+0x910>
 c002ba4:	e5d0c038 	ldrb	ip, [r0, #56]	; 0x38
 c002ba8:	e5d13038 	ldrb	r3, [r1, #56]	; 0x38
 c002bac:	e153000c 	cmp	r3, ip
 c002bb0:	e2800038 	add	r0, r0, #56	; 0x38
 c002bb4:	e2811038 	add	r1, r1, #56	; 0x38
				return TABLEROS_NO_IGUALES;
 c002bb8:	13a00000 	movne	r0, #0
	int i = 0;
	int j = 0;

	for (i = 0; i < DIM; i++) {
		for (j = 0; j < DIM; j++) {
			if(tablero1[i][j] != tablero2[i][j] || tablero2[i][j] != tablero3[i][j] || tablero1[i][j] != tablero3[i][j]){
 c002bbc:	1a000043 	bne	c002cd0 <comprobar_tableros+0x910>
 c002bc0:	e5d2c038 	ldrb	ip, [r2, #56]	; 0x38
 c002bc4:	e15c0003 	cmp	ip, r3
 c002bc8:	e2822038 	add	r2, r2, #56	; 0x38
				return TABLEROS_NO_IGUALES;
 c002bcc:	13a00000 	movne	r0, #0
	int i = 0;
	int j = 0;

	for (i = 0; i < DIM; i++) {
		for (j = 0; j < DIM; j++) {
			if(tablero1[i][j] != tablero2[i][j] || tablero2[i][j] != tablero3[i][j] || tablero1[i][j] != tablero3[i][j]){
 c002bd0:	1a00003e 	bne	c002cd0 <comprobar_tableros+0x910>
 c002bd4:	e5d0c001 	ldrb	ip, [r0, #1]
 c002bd8:	e5d13001 	ldrb	r3, [r1, #1]
 c002bdc:	e153000c 	cmp	r3, ip
				return TABLEROS_NO_IGUALES;
 c002be0:	13a00000 	movne	r0, #0
	int i = 0;
	int j = 0;

	for (i = 0; i < DIM; i++) {
		for (j = 0; j < DIM; j++) {
			if(tablero1[i][j] != tablero2[i][j] || tablero2[i][j] != tablero3[i][j] || tablero1[i][j] != tablero3[i][j]){
 c002be4:	1a000039 	bne	c002cd0 <comprobar_tableros+0x910>
 c002be8:	e5d2c001 	ldrb	ip, [r2, #1]
 c002bec:	e15c0003 	cmp	ip, r3
				return TABLEROS_NO_IGUALES;
 c002bf0:	13a00000 	movne	r0, #0
	int i = 0;
	int j = 0;

	for (i = 0; i < DIM; i++) {
		for (j = 0; j < DIM; j++) {
			if(tablero1[i][j] != tablero2[i][j] || tablero2[i][j] != tablero3[i][j] || tablero1[i][j] != tablero3[i][j]){
 c002bf4:	1a000035 	bne	c002cd0 <comprobar_tableros+0x910>
 c002bf8:	e5d0c002 	ldrb	ip, [r0, #2]
 c002bfc:	e5d13002 	ldrb	r3, [r1, #2]
 c002c00:	e153000c 	cmp	r3, ip
				return TABLEROS_NO_IGUALES;
 c002c04:	13a00000 	movne	r0, #0
	int i = 0;
	int j = 0;

	for (i = 0; i < DIM; i++) {
		for (j = 0; j < DIM; j++) {
			if(tablero1[i][j] != tablero2[i][j] || tablero2[i][j] != tablero3[i][j] || tablero1[i][j] != tablero3[i][j]){
 c002c08:	1a000030 	bne	c002cd0 <comprobar_tableros+0x910>
 c002c0c:	e5d2c002 	ldrb	ip, [r2, #2]
 c002c10:	e15c0003 	cmp	ip, r3
				return TABLEROS_NO_IGUALES;
 c002c14:	13a00000 	movne	r0, #0
	int i = 0;
	int j = 0;

	for (i = 0; i < DIM; i++) {
		for (j = 0; j < DIM; j++) {
			if(tablero1[i][j] != tablero2[i][j] || tablero2[i][j] != tablero3[i][j] || tablero1[i][j] != tablero3[i][j]){
 c002c18:	1a00002c 	bne	c002cd0 <comprobar_tableros+0x910>
 c002c1c:	e5d0c003 	ldrb	ip, [r0, #3]
 c002c20:	e5d13003 	ldrb	r3, [r1, #3]
 c002c24:	e153000c 	cmp	r3, ip
				return TABLEROS_NO_IGUALES;
 c002c28:	13a00000 	movne	r0, #0
	int i = 0;
	int j = 0;

	for (i = 0; i < DIM; i++) {
		for (j = 0; j < DIM; j++) {
			if(tablero1[i][j] != tablero2[i][j] || tablero2[i][j] != tablero3[i][j] || tablero1[i][j] != tablero3[i][j]){
 c002c2c:	1a000027 	bne	c002cd0 <comprobar_tableros+0x910>
 c002c30:	e5d2c003 	ldrb	ip, [r2, #3]
 c002c34:	e15c0003 	cmp	ip, r3
				return TABLEROS_NO_IGUALES;
 c002c38:	13a00000 	movne	r0, #0
	int i = 0;
	int j = 0;

	for (i = 0; i < DIM; i++) {
		for (j = 0; j < DIM; j++) {
			if(tablero1[i][j] != tablero2[i][j] || tablero2[i][j] != tablero3[i][j] || tablero1[i][j] != tablero3[i][j]){
 c002c3c:	1a000023 	bne	c002cd0 <comprobar_tableros+0x910>
 c002c40:	e5d0c004 	ldrb	ip, [r0, #4]
 c002c44:	e5d13004 	ldrb	r3, [r1, #4]
 c002c48:	e153000c 	cmp	r3, ip
				return TABLEROS_NO_IGUALES;
 c002c4c:	13a00000 	movne	r0, #0
	int i = 0;
	int j = 0;

	for (i = 0; i < DIM; i++) {
		for (j = 0; j < DIM; j++) {
			if(tablero1[i][j] != tablero2[i][j] || tablero2[i][j] != tablero3[i][j] || tablero1[i][j] != tablero3[i][j]){
 c002c50:	1a00001e 	bne	c002cd0 <comprobar_tableros+0x910>
 c002c54:	e5d2c004 	ldrb	ip, [r2, #4]
 c002c58:	e15c0003 	cmp	ip, r3
				return TABLEROS_NO_IGUALES;
 c002c5c:	13a00000 	movne	r0, #0
	int i = 0;
	int j = 0;

	for (i = 0; i < DIM; i++) {
		for (j = 0; j < DIM; j++) {
			if(tablero1[i][j] != tablero2[i][j] || tablero2[i][j] != tablero3[i][j] || tablero1[i][j] != tablero3[i][j]){
 c002c60:	1a00001a 	bne	c002cd0 <comprobar_tableros+0x910>
 c002c64:	e5d0c005 	ldrb	ip, [r0, #5]
 c002c68:	e5d13005 	ldrb	r3, [r1, #5]
 c002c6c:	e153000c 	cmp	r3, ip
				return TABLEROS_NO_IGUALES;
 c002c70:	13a00000 	movne	r0, #0
	int i = 0;
	int j = 0;

	for (i = 0; i < DIM; i++) {
		for (j = 0; j < DIM; j++) {
			if(tablero1[i][j] != tablero2[i][j] || tablero2[i][j] != tablero3[i][j] || tablero1[i][j] != tablero3[i][j]){
 c002c74:	1a000015 	bne	c002cd0 <comprobar_tableros+0x910>
 c002c78:	e5d2c005 	ldrb	ip, [r2, #5]
 c002c7c:	e15c0003 	cmp	ip, r3
				return TABLEROS_NO_IGUALES;
 c002c80:	13a00000 	movne	r0, #0
	int i = 0;
	int j = 0;

	for (i = 0; i < DIM; i++) {
		for (j = 0; j < DIM; j++) {
			if(tablero1[i][j] != tablero2[i][j] || tablero2[i][j] != tablero3[i][j] || tablero1[i][j] != tablero3[i][j]){
 c002c84:	1a000011 	bne	c002cd0 <comprobar_tableros+0x910>
 c002c88:	e5d0c006 	ldrb	ip, [r0, #6]
 c002c8c:	e5d13006 	ldrb	r3, [r1, #6]
 c002c90:	e153000c 	cmp	r3, ip
				return TABLEROS_NO_IGUALES;
 c002c94:	13a00000 	movne	r0, #0
	int i = 0;
	int j = 0;

	for (i = 0; i < DIM; i++) {
		for (j = 0; j < DIM; j++) {
			if(tablero1[i][j] != tablero2[i][j] || tablero2[i][j] != tablero3[i][j] || tablero1[i][j] != tablero3[i][j]){
 c002c98:	1a00000c 	bne	c002cd0 <comprobar_tableros+0x910>
 c002c9c:	e5d2c006 	ldrb	ip, [r2, #6]
 c002ca0:	e15c0003 	cmp	ip, r3
				return TABLEROS_NO_IGUALES;
 c002ca4:	13a00000 	movne	r0, #0
	int i = 0;
	int j = 0;

	for (i = 0; i < DIM; i++) {
		for (j = 0; j < DIM; j++) {
			if(tablero1[i][j] != tablero2[i][j] || tablero2[i][j] != tablero3[i][j] || tablero1[i][j] != tablero3[i][j]){
 c002ca8:	1a000008 	bne	c002cd0 <comprobar_tableros+0x910>
 c002cac:	e5d00007 	ldrb	r0, [r0, #7]
 c002cb0:	e5d13007 	ldrb	r3, [r1, #7]
 c002cb4:	e1530000 	cmp	r3, r0
				return TABLEROS_NO_IGUALES;
 c002cb8:	13a00000 	movne	r0, #0
	int i = 0;
	int j = 0;

	for (i = 0; i < DIM; i++) {
		for (j = 0; j < DIM; j++) {
			if(tablero1[i][j] != tablero2[i][j] || tablero2[i][j] != tablero3[i][j] || tablero1[i][j] != tablero3[i][j]){
 c002cbc:	1a000003 	bne	c002cd0 <comprobar_tableros+0x910>
  for (i=0; i<DIM; i=i+1) /* rad-nr */
    for (j=0; j<DIM; j=j+1) /* kolumn-nr */
      destmat[i][j] = srcmat[i][j];
}

int comprobar_tableros(char tablero1[][DIM], char tablero2[][DIM], char tablero3[][DIM]) {
 c002cc0:	e5d22007 	ldrb	r2, [r2, #7]
 c002cc4:	e0631002 	rsb	r1, r3, r2
 c002cc8:	e2710000 	rsbs	r0, r1, #0
 c002ccc:	e0a00001 	adc	r0, r0, r1
				return TABLEROS_NO_IGUALES;
			}
		}
	}
	return TABLEROS_IGUALES;
}
 c002cd0:	e8bd0070 	pop	{r4, r5, r6}
 c002cd4:	e12fff1e 	bx	lr

0c002cd8 <comprobar_patrones>:

int comprobar_patrones(int patron1, int patron2, int patron3) {
	if (patron1 == patron2 || patron1 == patron3 || patron2 == patron3) {
 c002cd8:	e1500001 	cmp	r0, r1
 c002cdc:	11500002 	cmpne	r0, r2
 c002ce0:	0a000002 	beq	c002cf0 <comprobar_patrones+0x18>
		return PATRONES_IGUALES;
 c002ce4:	e0510002 	subs	r0, r1, r2
 c002ce8:	13a00001 	movne	r0, #1
 c002cec:	e12fff1e 	bx	lr
 c002cf0:	e3a00000 	mov	r0, #0
	}
	return PATRONES_NO_IGUALES;
}
 c002cf4:	e12fff1e 	bx	lr

0c002cf8 <timer_ISR>:
void timer_ISR(void) __attribute__((interrupt("IRQ")));

/*--- codigo de las funciones ---*/
// Cuando llega a 0. El timer LANZA LA INTERRPUCIN
void timer_ISR(void)
{
 c002cf8:	e92d000f 	push	{r0, r1, r2, r3}
	switch_leds = 1; // El main est pendiente de este valor

	/* borrar bit en I_ISPC para desactivar la solicitud de interrupcin*/
	rI_ISPC |= BIT_TIMER0; // BIT_TIMER0 est definido en 44b.h y pone un uno en el bit 13 que correponde al Timer0
 c002cfc:	e3a0361e 	mov	r3, #31457280	; 0x1e00000
 c002d00:	e5932024 	ldr	r2, [r3, #36]	; 0x24

/*--- codigo de las funciones ---*/
// Cuando llega a 0. El timer LANZA LA INTERRPUCIN
void timer_ISR(void)
{
	switch_leds = 1; // El main est pendiente de este valor
 c002d04:	e59f1014 	ldr	r1, [pc, #20]	; c002d20 <timer_ISR+0x28>

	/* borrar bit en I_ISPC para desactivar la solicitud de interrupcin*/
	rI_ISPC |= BIT_TIMER0; // BIT_TIMER0 est definido en 44b.h y pone un uno en el bit 13 que correponde al Timer0
 c002d08:	e3822a02 	orr	r2, r2, #8192	; 0x2000

/*--- codigo de las funciones ---*/
// Cuando llega a 0. El timer LANZA LA INTERRPUCIN
void timer_ISR(void)
{
	switch_leds = 1; // El main est pendiente de este valor
 c002d0c:	e3a00001 	mov	r0, #1
 c002d10:	e5810000 	str	r0, [r1]

	/* borrar bit en I_ISPC para desactivar la solicitud de interrupcin*/
	rI_ISPC |= BIT_TIMER0; // BIT_TIMER0 est definido en 44b.h y pone un uno en el bit 13 que correponde al Timer0
 c002d14:	e5832024 	str	r2, [r3, #36]	; 0x24
}
 c002d18:	e8bd000f 	pop	{r0, r1, r2, r3}
 c002d1c:	e25ef004 	subs	pc, lr, #4
 c002d20:	0c003240 	.word	0x0c003240

0c002d24 <timer_init>:
// -- Se definen valores de los registros del controlador de interrupciones con las igualdades --

void timer_init(void)
{
	/* Configuraion controlador de interrupciones */
	rINTMOD = 0x0; // Configura las linas como de tipo IRQ											--- INTERRPUT MODE REGISTER 	(*(volatile unsigned *)0x1e00008)
 c002d24:	e3a0261e 	mov	r2, #31457280	; 0x1e00000
 c002d28:	e3a01000 	mov	r1, #0
	rINTCON = 0x1; // Habilita int. vectorizadas y la linea IRQ (FIQ no)							--- INTERRUPT CONTROL REGISTER	(*(volatile unsigned *)0x1e00000)
 c002d2c:	e3a03001 	mov	r3, #1
// -- Se definen valores de los registros del controlador de interrupciones con las igualdades --

void timer_init(void)
{
	/* Configuraion controlador de interrupciones */
	rINTMOD = 0x0; // Configura las linas como de tipo IRQ											--- INTERRPUT MODE REGISTER 	(*(volatile unsigned *)0x1e00008)
 c002d30:	e5821008 	str	r1, [r2, #8]
	rINTCON = 0x1; // Habilita int. vectorizadas y la linea IRQ (FIQ no)							--- INTERRUPT CONTROL REGISTER	(*(volatile unsigned *)0x1e00000)
 c002d34:	e5823000 	str	r3, [r2]
	rINTMSK &= ~(BIT_TIMER0); // habilitamos en vector de mascaras de interrupcion el Timer0 		--- INTERRUPT MASK REGISTER		(*(volatile unsigned *)0x1e0000c)
 c002d38:	e592c00c 	ldr	ip, [r2, #12]
 c002d3c:	e3cc0a02 	bic	r0, ip, #8192	; 0x2000
 c002d40:	e582000c 	str	r0, [r2, #12]

	/* Establece la rutina de servicio para TIMER0 */
	pISR_TIMER0 = (unsigned) timer_ISR;

	/* Configura el Timer0 */
	rTCFG0 = 255; // ajusta el preescalado															--- (*(volatile unsigned *)0x1d50000)
 c002d44:	e59f3038 	ldr	r3, [pc, #56]	; c002d84 <timer_init+0x60>
							//(bits 26 y 13, BIT_GLOBAL y BIT_TIMER0 estn definidos en 44b.h)		--- BIT_TIMER0: (0x1<<13) ??????????????????????????

	// &= ELIMINA BITS

	/* Establece la rutina de servicio para TIMER0 */
	pISR_TIMER0 = (unsigned) timer_ISR;
 c002d48:	e59f0038 	ldr	r0, [pc, #56]	; c002d88 <timer_init+0x64>
 c002d4c:	e59fc038 	ldr	ip, [pc, #56]	; c002d8c <timer_init+0x68>

	/* Configura el Timer0 */
	rTCFG0 = 255; // ajusta el preescalado															--- (*(volatile unsigned *)0x1d50000)
 c002d50:	e3a020ff 	mov	r2, #255	; 0xff
							//(bits 26 y 13, BIT_GLOBAL y BIT_TIMER0 estn definidos en 44b.h)		--- BIT_TIMER0: (0x1<<13) ??????????????????????????

	// &= ELIMINA BITS

	/* Establece la rutina de servicio para TIMER0 */
	pISR_TIMER0 = (unsigned) timer_ISR;
 c002d54:	e50c00ab 	str	r0, [ip, #-171]	; 0xffffff55

	/* Configura el Timer0 */
	rTCFG0 = 255; // ajusta el preescalado															--- (*(volatile unsigned *)0x1d50000)
 c002d58:	e5832000 	str	r2, [r3]
	rTCFG1 = 0x0; // selecciona la entrada del mux que proporciona el reloj.						--- (*(volatile unsigned *)0x1d50004)
				  // La 00 corresponde a un divisor de 1/2.
	rTCNTB0 = 65535;// valor inicial de cuenta (la cuenta es descendente)
 c002d5c:	e282ccff 	add	ip, r2, #65280	; 0xff00
	/* Establece la rutina de servicio para TIMER0 */
	pISR_TIMER0 = (unsigned) timer_ISR;

	/* Configura el Timer0 */
	rTCFG0 = 255; // ajusta el preescalado															--- (*(volatile unsigned *)0x1d50000)
	rTCFG1 = 0x0; // selecciona la entrada del mux que proporciona el reloj.						--- (*(volatile unsigned *)0x1d50004)
 c002d60:	e5831004 	str	r1, [r3, #4]
				  // La 00 corresponde a un divisor de 1/2.
	rTCNTB0 = 65535;// valor inicial de cuenta (la cuenta es descendente)
	rTCMPB0 = 12800;// valor de comparacin
	/* establecer update=manual (bit 1) + inverter=on (? ser inverter off un cero en el bit 2 pone el inverter en off)*/
	rTCON = 0x2;
 c002d64:	e3a00002 	mov	r0, #2
	/* Configura el Timer0 */
	rTCFG0 = 255; // ajusta el preescalado															--- (*(volatile unsigned *)0x1d50000)
	rTCFG1 = 0x0; // selecciona la entrada del mux que proporciona el reloj.						--- (*(volatile unsigned *)0x1d50004)
				  // La 00 corresponde a un divisor de 1/2.
	rTCNTB0 = 65535;// valor inicial de cuenta (la cuenta es descendente)
	rTCMPB0 = 12800;// valor de comparacin
 c002d68:	e3a01c32 	mov	r1, #12800	; 0x3200
	/* establecer update=manual (bit 1) + inverter=on (? ser inverter off un cero en el bit 2 pone el inverter en off)*/
	rTCON = 0x2;
	/* iniciar timer (bit 0) con auto-reload (bit 3)*/
	rTCON = 0x09;
 c002d6c:	e3a02009 	mov	r2, #9

	/* Configura el Timer0 */
	rTCFG0 = 255; // ajusta el preescalado															--- (*(volatile unsigned *)0x1d50000)
	rTCFG1 = 0x0; // selecciona la entrada del mux que proporciona el reloj.						--- (*(volatile unsigned *)0x1d50004)
				  // La 00 corresponde a un divisor de 1/2.
	rTCNTB0 = 65535;// valor inicial de cuenta (la cuenta es descendente)
 c002d70:	e583c00c 	str	ip, [r3, #12]
	rTCMPB0 = 12800;// valor de comparacin
 c002d74:	e5831010 	str	r1, [r3, #16]
	/* establecer update=manual (bit 1) + inverter=on (? ser inverter off un cero en el bit 2 pone el inverter en off)*/
	rTCON = 0x2;
 c002d78:	e5830008 	str	r0, [r3, #8]
	/* iniciar timer (bit 0) con auto-reload (bit 3)*/
	rTCON = 0x09;
 c002d7c:	e5832008 	str	r2, [r3, #8]
}
 c002d80:	e12fff1e 	bx	lr
 c002d84:	01d50000 	.word	0x01d50000
 c002d88:	0c002cf8 	.word	0x0c002cf8
 c002d8c:	0c7fffff 	.word	0x0c7fffff

0c002d90 <timer2_ISR>:

/*--- codigo de las funciones ---*/

// Cuando llega a 0. El timer LANZA LA INTERRPUCIN
void timer2_ISR(void)
{
 c002d90:	e92d000f 	push	{r0, r1, r2, r3}
	timer2_num_int++; // Sumamos 1 la variable timer
 c002d94:	e59f302c 	ldr	r3, [pc, #44]	; c002dc8 <timer2_ISR+0x38>
 c002d98:	e5931000 	ldr	r1, [r3]
 c002d9c:	e2810001 	add	r0, r1, #1
 c002da0:	e5830000 	str	r0, [r3]

	/* borrar bit en I_ISPC para desactivar la solicitud de interrupcin*/

	// ! Indica FIN de la ISR al controlador de interrupciones
	// Enmascara la interrupcin TIMER2
	rI_ISPC |= BIT_TIMER2; // BIT_TIMER2 est definido en 44b.h y pone un uno en el bit 11 que correponde al Timer2
 c002da4:	e3a0361e 	mov	r3, #31457280	; 0x1e00000
 c002da8:	e5932024 	ldr	r2, [r3, #36]	; 0x24

// Cuando llega a 0. El timer LANZA LA INTERRPUCIN
void timer2_ISR(void)
{
	timer2_num_int++; // Sumamos 1 la variable timer
	switch_leds = 1; // El main est pendiente de este valor
 c002dac:	e59f1018 	ldr	r1, [pc, #24]	; c002dcc <timer2_ISR+0x3c>

	/* borrar bit en I_ISPC para desactivar la solicitud de interrupcin*/

	// ! Indica FIN de la ISR al controlador de interrupciones
	// Enmascara la interrupcin TIMER2
	rI_ISPC |= BIT_TIMER2; // BIT_TIMER2 est definido en 44b.h y pone un uno en el bit 11 que correponde al Timer2
 c002db0:	e3822b02 	orr	r2, r2, #2048	; 0x800

// Cuando llega a 0. El timer LANZA LA INTERRPUCIN
void timer2_ISR(void)
{
	timer2_num_int++; // Sumamos 1 la variable timer
	switch_leds = 1; // El main est pendiente de este valor
 c002db4:	e3a00001 	mov	r0, #1
 c002db8:	e5810000 	str	r0, [r1]

	/* borrar bit en I_ISPC para desactivar la solicitud de interrupcin*/

	// ! Indica FIN de la ISR al controlador de interrupciones
	// Enmascara la interrupcin TIMER2
	rI_ISPC |= BIT_TIMER2; // BIT_TIMER2 est definido en 44b.h y pone un uno en el bit 11 que correponde al Timer2
 c002dbc:	e5832024 	str	r2, [r3, #36]	; 0x24
	// |= -> Significa que va a mantener el estado de rI_ISPC pero con el nuevo bit indicado. Es decir, hace una OR
	// entre lo  que ya tiene y el bit entrante.



}
 c002dc0:	e8bd000f 	pop	{r0, r1, r2, r3}
 c002dc4:	e25ef004 	subs	pc, lr, #4
 c002dc8:	0c003244 	.word	0x0c003244
 c002dcc:	0c003240 	.word	0x0c003240

0c002dd0 <timer2_inicializar>:
// -- Se definen valores de los registros del controlador de interrupciones con las igualdades --

void timer2_inicializar(void)
{
	/* Configuraion controlador de interrupciones */													
	rINTMOD = 0x0; // Configura las linas como de tipo IRQ											--- INTERRPUT MODE REGISTER 	(*(volatile unsigned *)0x1e00008)
 c002dd0:	e3a0161e 	mov	r1, #31457280	; 0x1e00000
 c002dd4:	e3a0c000 	mov	ip, #0
	rINTCON = 0x1; // Habilita interrupciones vectorizadas y la linea IRQ (FIQ no)					--- INTERRUPT CONTROL REGISTER	(*(volatile unsigned *)0x1e00000)
 c002dd8:	e3a03001 	mov	r3, #1
// -- Se definen valores de los registros del controlador de interrupciones con las igualdades --

void timer2_inicializar(void)
{
	/* Configuraion controlador de interrupciones */													
	rINTMOD = 0x0; // Configura las linas como de tipo IRQ											--- INTERRPUT MODE REGISTER 	(*(volatile unsigned *)0x1e00008)
 c002ddc:	e581c008 	str	ip, [r1, #8]
	rINTCON = 0x1; // Habilita interrupciones vectorizadas y la linea IRQ (FIQ no)					--- INTERRUPT CONTROL REGISTER	(*(volatile unsigned *)0x1e00000)
 c002de0:	e5813000 	str	r3, [r1]
	rINTMSK &= ~(BIT_TIMER2); // habilitamos en vector de mascaras de interrupcion el Timer0 		--- INTERRUPT MASK REGISTER		(*(volatile unsigned *)0x1e0000c)
 c002de4:	e591000c 	ldr	r0, [r1, #12]
 c002de8:	e3c02b02 	bic	r2, r0, #2048	; 0x800
 c002dec:	e581200c 	str	r2, [r1, #12]
							//(bits 26 y 13, BIT_GLOBAL y BIT_TIMER0 estn definidos en 44b.h)		--- BIT_TIMER0: (0x1<<13) ??????????????????????????

	// &= ELIMINA BITS -> Es un AND sobre rINTMSK y BIT_TIMER2

	/* Establece la rutina de servicio para TIMER0 */
	pISR_TIMER2 = (unsigned) timer2_ISR; // Le decimos que es timer2_ISR quin debe tratar la interrupcin
 c002df0:	e59f0030 	ldr	r0, [pc, #48]	; c002e28 <timer2_inicializar+0x58>
 c002df4:	e59f2030 	ldr	r2, [pc, #48]	; c002e2c <timer2_inicializar+0x5c>

	/* Configura el Timer2 */
	rTCFG0 = 0x0; // ajusta el preescalado. 255 hace referencia a los primeros 8 bits, es decir, temporizadores 0 y 1															--- (*(volatile unsigned *)0x1d50000)
 c002df8:	e59f3030 	ldr	r3, [pc, #48]	; c002e30 <timer2_inicializar+0x60>
	rTCFG1 = 0x0; // selecciona la entrada del mux que proporciona el reloj.						--- (*(volatile unsigned *)0x1d50004)
				  // La 00 corresponde a un divisor de 1/2.
	rTCNTB2 = 65535;// valor inicial de cuenta (la cuenta es descendente)
 c002dfc:	e59f1030 	ldr	r1, [pc, #48]	; c002e34 <timer2_inicializar+0x64>
							//(bits 26 y 13, BIT_GLOBAL y BIT_TIMER0 estn definidos en 44b.h)		--- BIT_TIMER0: (0x1<<13) ??????????????????????????

	// &= ELIMINA BITS -> Es un AND sobre rINTMSK y BIT_TIMER2

	/* Establece la rutina de servicio para TIMER0 */
	pISR_TIMER2 = (unsigned) timer2_ISR; // Le decimos que es timer2_ISR quin debe tratar la interrupcin
 c002e00:	e50020b3 	str	r2, [r0, #-179]	; 0xffffff4d
	rTCFG1 = 0x0; // selecciona la entrada del mux que proporciona el reloj.						--- (*(volatile unsigned *)0x1d50004)
				  // La 00 corresponde a un divisor de 1/2.
	rTCNTB2 = 65535;// valor inicial de cuenta (la cuenta es descendente)
	rTCMPB2 = 0;// valor de comparacin
	/* establecer update=manual (bit 1) + inverter=on (? ser inverter off un cero en el bit 2 pone el inverter en off)*/
	rTCON = 0x6000;
 c002e04:	e3a00a06 	mov	r0, #24576	; 0x6000
	/* iniciar timer (bit 0) con auto-reload (bit 3)*/
	rTCON = 0x9000; // Timer start = 1
 c002e08:	e3a02a09 	mov	r2, #36864	; 0x9000

	/* Establece la rutina de servicio para TIMER0 */
	pISR_TIMER2 = (unsigned) timer2_ISR; // Le decimos que es timer2_ISR quin debe tratar la interrupcin

	/* Configura el Timer2 */
	rTCFG0 = 0x0; // ajusta el preescalado. 255 hace referencia a los primeros 8 bits, es decir, temporizadores 0 y 1															--- (*(volatile unsigned *)0x1d50000)
 c002e0c:	e583c000 	str	ip, [r3]
	rTCFG1 = 0x0; // selecciona la entrada del mux que proporciona el reloj.						--- (*(volatile unsigned *)0x1d50004)
 c002e10:	e583c004 	str	ip, [r3, #4]
				  // La 00 corresponde a un divisor de 1/2.
	rTCNTB2 = 65535;// valor inicial de cuenta (la cuenta es descendente)
 c002e14:	e5831024 	str	r1, [r3, #36]	; 0x24
	rTCMPB2 = 0;// valor de comparacin
 c002e18:	e583c028 	str	ip, [r3, #40]	; 0x28
	/* establecer update=manual (bit 1) + inverter=on (? ser inverter off un cero en el bit 2 pone el inverter en off)*/
	rTCON = 0x6000;
 c002e1c:	e5830008 	str	r0, [r3, #8]
	/* iniciar timer (bit 0) con auto-reload (bit 3)*/
	rTCON = 0x9000; // Timer start = 1
 c002e20:	e5832008 	str	r2, [r3, #8]
				  // Manual update = 0
				  // Inverter = 0
				  // Timer auto-reload = 1
}
 c002e24:	e12fff1e 	bx	lr
 c002e28:	0c7fffff 	.word	0x0c7fffff
 c002e2c:	0c002d90 	.word	0x0c002d90
 c002e30:	01d50000 	.word	0x01d50000
 c002e34:	0000ffff 	.word	0x0000ffff

0c002e38 <timer2_empezar>:


void timer2_empezar() {
	timer2_num_int = 0;
 c002e38:	e59f2028 	ldr	r2, [pc, #40]	; c002e68 <timer2_empezar+0x30>
	  // La 00 corresponde a un divisor de 1/2.
	rTCNTB2 = 65535;// valor inicial de cuenta (la cuenta es descendente)
 c002e3c:	e59f3028 	ldr	r3, [pc, #40]	; c002e6c <timer2_empezar+0x34>
				  // Timer auto-reload = 1
}


void timer2_empezar() {
	timer2_num_int = 0;
 c002e40:	e3a0c000 	mov	ip, #0
	  // La 00 corresponde a un divisor de 1/2.
	rTCNTB2 = 65535;// valor inicial de cuenta (la cuenta es descendente)
 c002e44:	e59f1024 	ldr	r1, [pc, #36]	; c002e70 <timer2_empezar+0x38>
				  // Timer auto-reload = 1
}


void timer2_empezar() {
	timer2_num_int = 0;
 c002e48:	e582c000 	str	ip, [r2]
	  // La 00 corresponde a un divisor de 1/2.
	rTCNTB2 = 65535;// valor inicial de cuenta (la cuenta es descendente)
	rTCMPB2 = 0;// valor de comparacin
	/* establecer update=manual (bit 1) + inverter=on (? ser inverter off un cero en el bit 2 pone el inverter en off)*/
	rTCON = 0x6000;
 c002e4c:	e3a00a06 	mov	r0, #24576	; 0x6000
		/* iniciar timer (bit 0) con auto-reload (bit 3)*/
	rTCON = 0x9000; // Timer start = 1
 c002e50:	e3a02a09 	mov	r2, #36864	; 0x9000


void timer2_empezar() {
	timer2_num_int = 0;
	  // La 00 corresponde a un divisor de 1/2.
	rTCNTB2 = 65535;// valor inicial de cuenta (la cuenta es descendente)
 c002e54:	e5831024 	str	r1, [r3, #36]	; 0x24
	rTCMPB2 = 0;// valor de comparacin
 c002e58:	e583c028 	str	ip, [r3, #40]	; 0x28
	/* establecer update=manual (bit 1) + inverter=on (? ser inverter off un cero en el bit 2 pone el inverter en off)*/
	rTCON = 0x6000;
 c002e5c:	e5830008 	str	r0, [r3, #8]
		/* iniciar timer (bit 0) con auto-reload (bit 3)*/
	rTCON = 0x9000; // Timer start = 1
 c002e60:	e5832008 	str	r2, [r3, #8]
	    // Manual update = 0
  	   	// Inverter = 0
	    // Timer auto-reload = 1

}
 c002e64:	e12fff1e 	bx	lr
 c002e68:	0c003244 	.word	0x0c003244
 c002e6c:	01d50000 	.word	0x01d50000
 c002e70:	0000ffff 	.word	0x0000ffff

0c002e74 <timer2_leer>:
	// TCNTO = REGISTRO DE OBSERVACIN

	// Mltiplos

	// (rTCNTB2 * timer2_num_int + (rTCNTB2 - rTCNTO2)) / 32;
	return (timer2_num_int * (rTCNTB2) + (rTCNTB2 - rTCNTO2)) / 32;
 c002e74:	e59f3020 	ldr	r3, [pc, #32]	; c002e9c <timer2_leer+0x28>
 c002e78:	e59f2020 	ldr	r2, [pc, #32]	; c002ea0 <timer2_leer+0x2c>
 c002e7c:	e5930024 	ldr	r0, [r3, #36]	; 0x24
 c002e80:	e5922000 	ldr	r2, [r2]
 c002e84:	e5931024 	ldr	r1, [r3, #36]	; 0x24
 c002e88:	e593c02c 	ldr	ip, [r3, #44]	; 0x2c
 c002e8c:	e06c3001 	rsb	r3, ip, r1
 c002e90:	e0203092 	mla	r0, r2, r0, r3
}
 c002e94:	e1a002a0 	lsr	r0, r0, #5
 c002e98:	e12fff1e 	bx	lr
 c002e9c:	01d50000 	.word	0x01d50000
 c002ea0:	0c003244 	.word	0x0c003244

0c002ea4 <timer2_parar>:

unsigned int timer2_parar() {
	rINTMOD = 0x800; // Para evitar que lleguen interrupciones mientras leemos TCNB2 y TCNTO2
	rTCON = 0x0; // Esto est bien?
 c002ea4:	e59f3034 	ldr	r3, [pc, #52]	; c002ee0 <timer2_parar+0x3c>
	// (rTCNTB2 * timer2_num_int + (rTCNTB2 - rTCNTO2)) / 32;
	return (timer2_num_int * (rTCNTB2) + (rTCNTB2 - rTCNTO2)) / 32;
}

unsigned int timer2_parar() {
	rINTMOD = 0x800; // Para evitar que lleguen interrupciones mientras leemos TCNB2 y TCNTO2
 c002ea8:	e3a0cb02 	mov	ip, #2048	; 0x800
 c002eac:	e3a0161e 	mov	r1, #31457280	; 0x1e00000
	rTCON = 0x0; // Esto est bien?
 c002eb0:	e3a00000 	mov	r0, #0
	// (rTCNTB2 * timer2_num_int + (rTCNTB2 - rTCNTO2)) / 32;
	return (timer2_num_int * (rTCNTB2) + (rTCNTB2 - rTCNTO2)) / 32;
}

unsigned int timer2_parar() {
	rINTMOD = 0x800; // Para evitar que lleguen interrupciones mientras leemos TCNB2 y TCNTO2
 c002eb4:	e581c008 	str	ip, [r1, #8]
	// TCNTO = REGISTRO DE OBSERVACIN

	// Mltiplos

	// (rTCNTB2 * timer2_num_int + (rTCNTB2 - rTCNTO2)) / 32;
	return (timer2_num_int * (rTCNTB2) + (rTCNTB2 - rTCNTO2)) / 32;
 c002eb8:	e59f2024 	ldr	r2, [pc, #36]	; c002ee4 <timer2_parar+0x40>
}

unsigned int timer2_parar() {
	rINTMOD = 0x800; // Para evitar que lleguen interrupciones mientras leemos TCNB2 y TCNTO2
	rTCON = 0x0; // Esto est bien?
 c002ebc:	e5830008 	str	r0, [r3, #8]
	// TCNTO = REGISTRO DE OBSERVACIN

	// Mltiplos

	// (rTCNTB2 * timer2_num_int + (rTCNTB2 - rTCNTO2)) / 32;
	return (timer2_num_int * (rTCNTB2) + (rTCNTB2 - rTCNTO2)) / 32;
 c002ec0:	e5930024 	ldr	r0, [r3, #36]	; 0x24
 c002ec4:	e5922000 	ldr	r2, [r2]
 c002ec8:	e5931024 	ldr	r1, [r3, #36]	; 0x24
 c002ecc:	e593c02c 	ldr	ip, [r3, #44]	; 0x2c
 c002ed0:	e06c3001 	rsb	r3, ip, r1
 c002ed4:	e0203092 	mla	r0, r2, r0, r3
unsigned int timer2_parar() {
	rINTMOD = 0x800; // Para evitar que lleguen interrupciones mientras leemos TCNB2 y TCNTO2
	rTCON = 0x0; // Esto est bien?

	return timer2_leer();
}
 c002ed8:	e1a002a0 	lsr	r0, r0, #5
 c002edc:	e12fff1e 	bx	lr
 c002ee0:	01d50000 	.word	0x01d50000
 c002ee4:	0c003244 	.word	0x0c003244

0c002ee8 <__aeabi_idiv>:
 c002ee8:	e3510000 	cmp	r1, #0
 c002eec:	0a000043 	beq	c003000 <.divsi3_skip_div0_test+0x110>

0c002ef0 <.divsi3_skip_div0_test>:
 c002ef0:	e020c001 	eor	ip, r0, r1
 c002ef4:	42611000 	rsbmi	r1, r1, #0
 c002ef8:	e2512001 	subs	r2, r1, #1
 c002efc:	0a000027 	beq	c002fa0 <.divsi3_skip_div0_test+0xb0>
 c002f00:	e1b03000 	movs	r3, r0
 c002f04:	42603000 	rsbmi	r3, r0, #0
 c002f08:	e1530001 	cmp	r3, r1
 c002f0c:	9a000026 	bls	c002fac <.divsi3_skip_div0_test+0xbc>
 c002f10:	e1110002 	tst	r1, r2
 c002f14:	0a000028 	beq	c002fbc <.divsi3_skip_div0_test+0xcc>
 c002f18:	e311020e 	tst	r1, #-536870912	; 0xe0000000
 c002f1c:	01a01181 	lsleq	r1, r1, #3
 c002f20:	03a02008 	moveq	r2, #8
 c002f24:	13a02001 	movne	r2, #1
 c002f28:	e3510201 	cmp	r1, #268435456	; 0x10000000
 c002f2c:	31510003 	cmpcc	r1, r3
 c002f30:	31a01201 	lslcc	r1, r1, #4
 c002f34:	31a02202 	lslcc	r2, r2, #4
 c002f38:	3afffffa 	bcc	c002f28 <.divsi3_skip_div0_test+0x38>
 c002f3c:	e3510102 	cmp	r1, #-2147483648	; 0x80000000
 c002f40:	31510003 	cmpcc	r1, r3
 c002f44:	31a01081 	lslcc	r1, r1, #1
 c002f48:	31a02082 	lslcc	r2, r2, #1
 c002f4c:	3afffffa 	bcc	c002f3c <.divsi3_skip_div0_test+0x4c>
 c002f50:	e3a00000 	mov	r0, #0
 c002f54:	e1530001 	cmp	r3, r1
 c002f58:	20433001 	subcs	r3, r3, r1
 c002f5c:	21800002 	orrcs	r0, r0, r2
 c002f60:	e15300a1 	cmp	r3, r1, lsr #1
 c002f64:	204330a1 	subcs	r3, r3, r1, lsr #1
 c002f68:	218000a2 	orrcs	r0, r0, r2, lsr #1
 c002f6c:	e1530121 	cmp	r3, r1, lsr #2
 c002f70:	20433121 	subcs	r3, r3, r1, lsr #2
 c002f74:	21800122 	orrcs	r0, r0, r2, lsr #2
 c002f78:	e15301a1 	cmp	r3, r1, lsr #3
 c002f7c:	204331a1 	subcs	r3, r3, r1, lsr #3
 c002f80:	218001a2 	orrcs	r0, r0, r2, lsr #3
 c002f84:	e3530000 	cmp	r3, #0
 c002f88:	11b02222 	lsrsne	r2, r2, #4
 c002f8c:	11a01221 	lsrne	r1, r1, #4
 c002f90:	1affffef 	bne	c002f54 <.divsi3_skip_div0_test+0x64>
 c002f94:	e35c0000 	cmp	ip, #0
 c002f98:	42600000 	rsbmi	r0, r0, #0
 c002f9c:	e12fff1e 	bx	lr
 c002fa0:	e13c0000 	teq	ip, r0
 c002fa4:	42600000 	rsbmi	r0, r0, #0
 c002fa8:	e12fff1e 	bx	lr
 c002fac:	33a00000 	movcc	r0, #0
 c002fb0:	01a00fcc 	asreq	r0, ip, #31
 c002fb4:	03800001 	orreq	r0, r0, #1
 c002fb8:	e12fff1e 	bx	lr
 c002fbc:	e3510801 	cmp	r1, #65536	; 0x10000
 c002fc0:	21a01821 	lsrcs	r1, r1, #16
 c002fc4:	23a02010 	movcs	r2, #16
 c002fc8:	33a02000 	movcc	r2, #0
 c002fcc:	e3510c01 	cmp	r1, #256	; 0x100
 c002fd0:	21a01421 	lsrcs	r1, r1, #8
 c002fd4:	22822008 	addcs	r2, r2, #8
 c002fd8:	e3510010 	cmp	r1, #16
 c002fdc:	21a01221 	lsrcs	r1, r1, #4
 c002fe0:	22822004 	addcs	r2, r2, #4
 c002fe4:	e3510004 	cmp	r1, #4
 c002fe8:	82822003 	addhi	r2, r2, #3
 c002fec:	908220a1 	addls	r2, r2, r1, lsr #1
 c002ff0:	e35c0000 	cmp	ip, #0
 c002ff4:	e1a00233 	lsr	r0, r3, r2
 c002ff8:	42600000 	rsbmi	r0, r0, #0
 c002ffc:	e12fff1e 	bx	lr
 c003000:	e3500000 	cmp	r0, #0
 c003004:	c3e00102 	mvngt	r0, #-2147483648	; 0x80000000
 c003008:	b3a00102 	movlt	r0, #-2147483648	; 0x80000000
 c00300c:	ea000007 	b	c003030 <__aeabi_idiv0>

0c003010 <__aeabi_idivmod>:
 c003010:	e3510000 	cmp	r1, #0
 c003014:	0afffff9 	beq	c003000 <.divsi3_skip_div0_test+0x110>
 c003018:	e92d4003 	push	{r0, r1, lr}
 c00301c:	ebffffb3 	bl	c002ef0 <.divsi3_skip_div0_test>
 c003020:	e8bd4006 	pop	{r1, r2, lr}
 c003024:	e0030092 	mul	r3, r2, r0
 c003028:	e0411003 	sub	r1, r1, r3
 c00302c:	e12fff1e 	bx	lr

0c003030 <__aeabi_idiv0>:
 c003030:	e12fff1e 	bx	lr

0c003034 <memset>:
 c003034:	e3520003 	cmp	r2, #3
 c003038:	e52d4004 	push	{r4}		; (str r4, [sp, #-4]!)
 c00303c:	e20110ff 	and	r1, r1, #255	; 0xff
 c003040:	8a000008 	bhi	c003068 <memset+0x34>
 c003044:	e3520000 	cmp	r2, #0
 c003048:	0a000004 	beq	c003060 <memset+0x2c>
 c00304c:	e1a03000 	mov	r3, r0
 c003050:	e0822000 	add	r2, r2, r0
 c003054:	e4c31001 	strb	r1, [r3], #1
 c003058:	e1530002 	cmp	r3, r2
 c00305c:	1afffffc 	bne	c003054 <memset+0x20>
 c003060:	e49d4004 	pop	{r4}		; (ldr r4, [sp], #4)
 c003064:	e12fff1e 	bx	lr
 c003068:	e0802002 	add	r2, r0, r2
 c00306c:	e1a0c000 	mov	ip, r0
 c003070:	ea000000 	b	c003078 <memset+0x44>
 c003074:	e4cc1001 	strb	r1, [ip], #1
 c003078:	e31c0003 	tst	ip, #3
 c00307c:	1afffffc 	bne	c003074 <memset+0x40>
 c003080:	e0813401 	add	r3, r1, r1, lsl #8
 c003084:	e0833803 	add	r3, r3, r3, lsl #16
 c003088:	ea00000f 	b	c0030cc <memset+0x98>
 c00308c:	e50c3040 	str	r3, [ip, #-64]	; 0xffffffc0
 c003090:	e50c303c 	str	r3, [ip, #-60]	; 0xffffffc4
 c003094:	e50c3038 	str	r3, [ip, #-56]	; 0xffffffc8
 c003098:	e50c3034 	str	r3, [ip, #-52]	; 0xffffffcc
 c00309c:	e50c3030 	str	r3, [ip, #-48]	; 0xffffffd0
 c0030a0:	e50c302c 	str	r3, [ip, #-44]	; 0xffffffd4
 c0030a4:	e50c3028 	str	r3, [ip, #-40]	; 0xffffffd8
 c0030a8:	e50c3024 	str	r3, [ip, #-36]	; 0xffffffdc
 c0030ac:	e50c3020 	str	r3, [ip, #-32]	; 0xffffffe0
 c0030b0:	e50c301c 	str	r3, [ip, #-28]	; 0xffffffe4
 c0030b4:	e50c3018 	str	r3, [ip, #-24]	; 0xffffffe8
 c0030b8:	e50c3014 	str	r3, [ip, #-20]	; 0xffffffec
 c0030bc:	e50c3010 	str	r3, [ip, #-16]
 c0030c0:	e50c300c 	str	r3, [ip, #-12]
 c0030c4:	e50c3008 	str	r3, [ip, #-8]
 c0030c8:	e50c3004 	str	r3, [ip, #-4]
 c0030cc:	e06c4002 	rsb	r4, ip, r2
 c0030d0:	e354003f 	cmp	r4, #63	; 0x3f
 c0030d4:	e1a0400c 	mov	r4, ip
 c0030d8:	e28cc040 	add	ip, ip, #64	; 0x40
 c0030dc:	caffffea 	bgt	c00308c <memset+0x58>
 c0030e0:	e1a0c004 	mov	ip, r4
 c0030e4:	ea000003 	b	c0030f8 <memset+0xc4>
 c0030e8:	e50c3010 	str	r3, [ip, #-16]
 c0030ec:	e50c300c 	str	r3, [ip, #-12]
 c0030f0:	e50c3008 	str	r3, [ip, #-8]
 c0030f4:	e50c3004 	str	r3, [ip, #-4]
 c0030f8:	e06c4002 	rsb	r4, ip, r2
 c0030fc:	e354000f 	cmp	r4, #15
 c003100:	e1a0400c 	mov	r4, ip
 c003104:	e28cc010 	add	ip, ip, #16
 c003108:	cafffff6 	bgt	c0030e8 <memset+0xb4>
 c00310c:	ea000000 	b	c003114 <memset+0xe0>
 c003110:	e4843004 	str	r3, [r4], #4
 c003114:	e064c002 	rsb	ip, r4, r2
 c003118:	e35c0003 	cmp	ip, #3
 c00311c:	cafffffb 	bgt	c003110 <memset+0xdc>
 c003120:	ea000000 	b	c003128 <memset+0xf4>
 c003124:	e4c41001 	strb	r1, [r4], #1
 c003128:	e1540002 	cmp	r4, r2
 c00312c:	3afffffc 	bcc	c003124 <memset+0xf0>
 c003130:	eaffffca 	b	c003060 <memset+0x2c>
