   1              		.cpu arm7tdmi
   2              		.fpu softvfp
   3              		.eabi_attribute 20, 1
   4              		.eabi_attribute 21, 1
   5              		.eabi_attribute 23, 3
   6              		.eabi_attribute 24, 1
   7              		.eabi_attribute 25, 1
   8              		.eabi_attribute 26, 1
   9              		.eabi_attribute 30, 2
  10              		.eabi_attribute 18, 4
  11              		.file	"44blib.c"
  21              	.Ltext0:
  22              		.file 1 "../common/44blib.c"
 3126              		.align	2
 3127              		.global	Delay
 3129              	Delay:
 3130              	.LFB0:
   1:../common/44blib.c **** #include "44b.h"
   2:../common/44blib.c **** #include "44blib.h"
   3:../common/44blib.c **** #include "def.h"
   4:../common/44blib.c **** #include "option.h"
   5:../common/44blib.c **** 
   6:../common/44blib.c **** #include <stdarg.h>
   7:../common/44blib.c **** #include <string.h>
   8:../common/44blib.c **** #include <stdio.h>
   9:../common/44blib.c **** #include <ctype.h>
  10:../common/44blib.c **** 
  11:../common/44blib.c **** #define STACKSIZE    0xa00 // SVC stack size (do not use user stack)
  12:../common/44blib.c **** #define HEAPEND     (_ISR_STARTADDRESS-STACKSIZE-0x500) // = 0xc7ff000
  13:../common/44blib.c **** //SVC Stack Area:0xc(e)7ff000-0xc(e)7ffaff//
  14:../common/44blib.c **** 
  15:../common/44blib.c **** extern char Image_RW_Limit[];
  16:../common/44blib.c **** volatile unsigned char *downPt;
  17:../common/44blib.c **** unsigned int fileSize;
  18:../common/44blib.c **** void *mallocPt = Image_RW_Limit;
  19:../common/44blib.c **** 
  20:../common/44blib.c **** void (*restart)(void) = (void (*)(void))0x0;
  21:../common/44blib.c **** void (*run)(void) = (void (*)(void))DOWNLOAD_ADDRESS;
  22:../common/44blib.c **** 
  23:../common/44blib.c **** //--------------------------------SYSTEM---------------------------------//
  24:../common/44blib.c **** static int delayLoopCount = 400;
  25:../common/44blib.c **** 
  26:../common/44blib.c **** void Delay(int time)
  27:../common/44blib.c **** // time=0: adjust the Delay function by WatchDog timer
  28:../common/44blib.c **** // time>0: the number of loop time
  29:../common/44blib.c **** // 100us resolution
  30:../common/44blib.c **** // Delay(10) -> 10*100us resolution
  31:../common/44blib.c **** {
 3131              		.loc 1 31 0
 3132              		.cfi_startproc
 3133              		@ Function supports interworking.
 3134              		@ args = 0, pretend = 0, frame = 0
 3135              		@ frame_needed = 1, uses_anonymous_args = 0
 3136              	.LVL0:
 3137 0000 0DC0A0E1 		mov	ip, sp
 3138              	.LCFI0:
 3139              		.cfi_def_cfa_register 12
  32:../common/44blib.c **** 	int i,adjust = 0;
  33:../common/44blib.c **** 	if (time == 0)
 3140              		.loc 1 33 0
 3141 0004 000050E3 		cmp	r0, #0
  31:../common/44blib.c **** {
 3142              		.loc 1 31 0
 3143 0008 18D82DE9 		stmfd	sp!, {r3, r4, fp, ip, lr, pc}
 3144 000c 04B04CE2 		sub	fp, ip, #4
 3145              		.cfi_offset 14, -8
 3146              		.cfi_offset 13, -12
 3147              		.cfi_offset 11, -16
 3148              		.cfi_offset 4, -20
 3149              		.cfi_offset 3, -24
 3150              	.LCFI1:
 3151              		.cfi_def_cfa 11, 4
 3152              		.loc 1 33 0
 3153 0010 1000001A 		bne	.L1
 3154              	.LVL1:
  34:../common/44blib.c **** 	{
  35:../common/44blib.c **** 		time = 200;
  36:../common/44blib.c **** 		adjust = 1;
  37:../common/44blib.c **** 		delayLoopCount = 400;
  38:../common/44blib.c **** 		rWTCON = ((MCLK/1000000 - 1)<<8) | (2<<3);	// 1M/64,Watch-dog,nRESET,interrupt disable//
 3155              		.loc 1 38 0
 3156 0014 48309FE5 		ldr	r3, .L8
 3157 0018 48409FE5 		ldr	r4, .L8+4
  39:../common/44blib.c **** 		rWTDAT = 0xffff;
 3158              		.loc 1 39 0
 3159 001c 48E09FE5 		ldr	lr, .L8+8
  40:../common/44blib.c **** 		rWTCNT = 0xffff;
  41:../common/44blib.c **** 		rWTCON = ((MCLK/1000000 - 1)<<8)|(2<<3)|(1<<5); // 1M/64,Watch-dog enable,nRESET,interrupt disabl
 3160              		.loc 1 41 0
 3161 0020 48C09FE5 		ldr	ip, .L8+12
  38:../common/44blib.c **** 		rWTCON = ((MCLK/1000000 - 1)<<8) | (2<<3);	// 1M/64,Watch-dog,nRESET,interrupt disable//
 3162              		.loc 1 38 0
 3163 0024 004083E5 		str	r4, [r3, #0]
  39:../common/44blib.c **** 		rWTDAT = 0xffff;
 3164              		.loc 1 39 0
 3165 0028 04E083E5 		str	lr, [r3, #4]
  40:../common/44blib.c **** 		rWTCNT = 0xffff;
 3166              		.loc 1 40 0
 3167 002c 08E083E5 		str	lr, [r3, #8]
 3168              		.loc 1 41 0
 3169 0030 00C083E5 		str	ip, [r3, #0]
  42:../common/44blib.c **** 	}
  43:../common/44blib.c **** 	for (; time>0; time--)
  44:../common/44blib.c **** 		for (i = 0; i < delayLoopCount; i++);
  45:../common/44blib.c **** 	if (adjust == 1)
  46:../common/44blib.c **** 	{
  47:../common/44blib.c **** 		rWTCON = ((MCLK/1000000 - 1)<<8)|(2<<3);
 3170              		.loc 1 47 0
 3171 0034 004083E5 		str	r4, [r3, #0]
  48:../common/44blib.c **** 		i = 0xffff - rWTCNT;   //  1count/16us?????????//
 3172              		.loc 1 48 0
 3173 0038 082093E5 		ldr	r2, [r3, #8]
 3174              	.LVL2:
 3175 003c FF0C62E2 		rsb	r0, r2, #65280
 3176 0040 FF1080E2 		add	r1, r0, #255
  49:../common/44blib.c **** 		delayLoopCount = 8000000/(i*64);	//400*100/(i*64/200)   //
 3177              		.loc 1 49 0
 3178 0044 0113A0E1 		mov	r1, r1, asl #6
 3179 0048 24009FE5 		ldr	r0, .L8+16
 3180 004c FEFFFFEB 		bl	__aeabi_idiv
 3181              	.LVL3:
  37:../common/44blib.c **** 		delayLoopCount = 400;
 3182              		.loc 1 37 0
 3183 0050 20409FE5 		ldr	r4, .L8+20
 3184              		.loc 1 49 0
 3185 0054 000084E5 		str	r0, [r4, #0]
 3186              	.LVL4:
 3187              	.L1:
  50:../common/44blib.c **** 	}
  51:../common/44blib.c **** }
 3188              		.loc 1 51 0
 3189 0058 14D04BE2 		sub	sp, fp, #20
 3190 005c 18689DE8 		ldmfd	sp, {r3, r4, fp, sp, lr}
 3191 0060 1EFF2FE1 		bx	lr
 3192              	.L9:
 3193              		.align	2
 3194              	.L8:
 3195 0064 0000D301 		.word	30605312
 3196 0068 103F0000 		.word	16144
 3197 006c FFFF0000 		.word	65535
 3198 0070 303F0000 		.word	16176
 3199 0074 00127A00 		.word	8000000
 3200 0078 00000000 		.word	.LANCHOR0
 3201              		.cfi_endproc
 3202              	.LFE0:
 3204              		.align	2
 3205              		.global	DelayMs
 3207              	DelayMs:
 3208              	.LFB1:
  52:../common/44blib.c **** 
  53:../common/44blib.c **** void DelayMs(int ms_time)
  54:../common/44blib.c **** {
 3209              		.loc 1 54 0
 3210              		.cfi_startproc
 3211              		@ Function supports interworking.
 3212              		@ args = 0, pretend = 0, frame = 0
 3213              		@ frame_needed = 0, uses_anonymous_args = 0
 3214              		@ link register save eliminated.
 3215              	.LVL5:
  55:../common/44blib.c **** 	int i;
  56:../common/44blib.c **** 
  57:../common/44blib.c **** 	for (i = 0; i < 1000*ms_time ; i++)
  58:../common/44blib.c **** 		;
  59:../common/44blib.c **** }
 3216              		.loc 1 59 0
 3217 007c 1EFF2FE1 		bx	lr
 3218              		.cfi_endproc
 3219              	.LFE1:
 3221              		.align	2
 3222              		.global	Port_Init
 3224              	Port_Init:
 3225              	.LFB2:
  60:../common/44blib.c **** 
  61:../common/44blib.c **** //------------------------PORTS------------------------------//
  62:../common/44blib.c **** void Port_Init(void)
  63:../common/44blib.c **** {
 3226              		.loc 1 63 0
 3227              		.cfi_startproc
 3228              		@ Function supports interworking.
 3229              		@ args = 0, pretend = 0, frame = 0
 3230              		@ frame_needed = 0, uses_anonymous_args = 0
 3231              		@ link register save eliminated.
  64:../common/44blib.c **** 	//CAUTION:Follow the configuration order for setting the ports.
  65:../common/44blib.c **** 	// 1) setting value
  66:../common/44blib.c **** 	// 2) setting control register
  67:../common/44blib.c **** 	// 3) configure pull-up resistor.
  68:../common/44blib.c **** 
  69:../common/44blib.c **** 	//16bit data bus configuration
  70:../common/44blib.c **** 
  71:../common/44blib.c **** 	// PORT A GROUP
  72:../common/44blib.c **** 	// BIT 	9	8	7	6	5	4	3	2	1	0
  73:../common/44blib.c **** 	// 		A24	A23	A22	A21	A20	A19	A18	A17	A16	A0
  74:../common/44blib.c **** 	//		0	1	1	1	1	1	1	1	1	1
  75:../common/44blib.c **** 	rPCONA = 0x1ff;
 3232              		.loc 1 75 0
 3233 0080 9C309FE5 		ldr	r3, .L12
 3234 0084 9C009FE5 		ldr	r0, .L12+4
  76:../common/44blib.c **** 
  77:../common/44blib.c **** 	// PORT B GROUP
  78:../common/44blib.c **** 	// BIT 	10		9		8		7		6		5		4		3		2		1		0
  79:../common/44blib.c **** 	//		/CS5	/CS4	/CS3	/CS2	/CS1	GPB5	GPB4	/SRAS	/SCAS	SCLK	SCKE
  80:../common/44blib.c **** 	//		EXT		NIC		USB		IDE		SMC		NC		NC		Sdram	Sdram	Sdram	Sdram
  81:../common/44blib.c **** 	//      1, 		1,   	1,   	1,    	1,    	0,       0,     1,    	1,    	1,   	1
  82:../common/44blib.c **** 	rPDATB = 0x7ff;
 3235              		.loc 1 82 0
 3236 0088 9CC09FE5 		ldr	ip, .L12+8
  75:../common/44blib.c **** 	rPCONA = 0x1ff;
 3237              		.loc 1 75 0
 3238 008c 000083E5 		str	r0, [r3, #0]
 3239              		.loc 1 82 0
 3240 0090 0CC083E5 		str	ip, [r3, #12]
  83:../common/44blib.c **** 	rPCONB = 0x1cf;			// P9-LED1 P10-LED2
 3241              		.loc 1 83 0
 3242 0094 94C09FE5 		ldr	ip, .L12+12
 3243 0098 08C083E5 		str	ip, [r3, #8]
  84:../common/44blib.c **** 
  85:../common/44blib.c **** 	// PORT C GROUP
  86:../common/44blib.c **** 	// BUSWIDTH=16
  87:../common/44blib.c **** 	//  PC15	14		13		12		11		10		9		8
  88:../common/44blib.c **** 	//	I		I		RXD1	TXD1	I		I		I		I
  89:../common/44blib.c **** 	//	NC		NC		Uart1	Uart1	NC		NC		NC		NC
  90:../common/44blib.c **** 	//	00		00		11		11		00		00		00		00
  91:../common/44blib.c **** 
  92:../common/44blib.c **** 	//  PC7		6		5		4		3		2		1		0
  93:../common/44blib.c **** 	//   I		I		I		I		I		I		I		I
  94:../common/44blib.c **** 	//   NC		NC		NC		NC		IISCLK	IISDI	IISDO	IISLRCK
  95:../common/44blib.c **** 	//   00		00		00		00		11		11		11		11
  96:../common/44blib.c **** 	rPDATC = 0xff00;
 3244              		.loc 1 96 0
 3245 009c FFCCA0E3 		mov	ip, #65280
 3246 00a0 14C083E5 		str	ip, [r3, #20]
  97:../common/44blib.c **** 	rPCONC = 0x0ff0ffff;
 3247              		.loc 1 97 0
 3248 00a4 88C09FE5 		ldr	ip, .L12+16
 3249 00a8 10C083E5 		str	ip, [r3, #16]
  98:../common/44blib.c **** 	rPUPC  = 0x30ff;	//PULL UP RESISTOR should be enabled to I/O
 3250              		.loc 1 98 0
 3251 00ac 84C09FE5 		ldr	ip, .L12+20
 3252 00b0 18C083E5 		str	ip, [r3, #24]
  99:../common/44blib.c **** 
 100:../common/44blib.c **** 	// PORT D GROUP
 101:../common/44blib.c **** 	// PORT D GROUP(I/O OR LCD)
 102:../common/44blib.c **** 	// BIT7		6		5		4		3		2		1		0
 103:../common/44blib.c **** 	//	VF		VM		VLINE	VCLK	VD3		VD2		VD1		VD0
 104:../common/44blib.c **** 	//	00		00		00		00		00		00		00		00
 105:../common/44blib.c **** 	rPDATD= 0xff;
 106:../common/44blib.c **** 	rPCOND= 0xaaaa;
 3253              		.loc 1 106 0
 3254 00b4 80C09FE5 		ldr	ip, .L12+24
 105:../common/44blib.c **** 	rPDATD= 0xff;
 3255              		.loc 1 105 0
 3256 00b8 FF10A0E3 		mov	r1, #255
 3257 00bc 201083E5 		str	r1, [r3, #32]
 107:../common/44blib.c **** 	rPUPD = 0x0;
 3258              		.loc 1 107 0
 3259 00c0 0020A0E3 		mov	r2, #0
 106:../common/44blib.c **** 	rPCOND= 0xaaaa;
 3260              		.loc 1 106 0
 3261 00c4 1CC083E5 		str	ip, [r3, #28]
 108:../common/44blib.c **** 	// These pins must be set only after CPU's internal LCD controller is enable
 109:../common/44blib.c **** 
 110:../common/44blib.c **** 	// PORT E GROUP
 111:../common/44blib.c **** 	// Bit	8		7		6		5		4		3		2		1		0
 112:../common/44blib.c **** 	//  	CODECLK	LED4	LED5	LED6	LED7	BEEP	RXD0	TXD0	LcdDisp
 113:../common/44blib.c **** 	//  	10		01		01		01		01		01		10		10		01
 114:../common/44blib.c **** 	rPDATE	= 0x1ff;
 115:../common/44blib.c **** 	rPCONE	= 0x25529;
 3262              		.loc 1 115 0
 3263 00c8 25CA80E2 		add	ip, r0, #151552
 107:../common/44blib.c **** 	rPUPD = 0x0;
 3264              		.loc 1 107 0
 3265 00cc 242083E5 		str	r2, [r3, #36]
 114:../common/44blib.c **** 	rPDATE	= 0x1ff;
 3266              		.loc 1 114 0
 3267 00d0 2C0083E5 		str	r0, [r3, #44]
 3268              		.loc 1 115 0
 3269 00d4 CA0F8CE2 		add	r0, ip, #808
 3270 00d8 02C080E2 		add	ip, r0, #2
 3271 00dc 28C083E5 		str	ip, [r3, #40]
 116:../common/44blib.c **** 	rPUPE	= 0x6;
 3272              		.loc 1 116 0
 3273 00e0 0600A0E3 		mov	r0, #6
 117:../common/44blib.c **** 
 118:../common/44blib.c **** 	// PORT F GROUP
 119:../common/44blib.c **** 	// Bit8		7		6		5		 4		3		2		1		0
 120:../common/44blib.c **** 	// IISCLK	IISDI	IISDO	IISLRCK	Input	Input	Input	IICSDA	IICSCL
 121:../common/44blib.c **** 	// 100		100		100		100		00		00		00		10		10
 122:../common/44blib.c **** 	rPDATF = 0x0;
 123:../common/44blib.c **** 	rPCONF = 0x252a;
 3274              		.loc 1 123 0
 3275 00e4 54C09FE5 		ldr	ip, .L12+28
 116:../common/44blib.c **** 	rPUPE	= 0x6;
 3276              		.loc 1 116 0
 3277 00e8 300083E5 		str	r0, [r3, #48]
 124:../common/44blib.c **** 	rPUPF  = 0x0;
 125:../common/44blib.c **** 
 126:../common/44blib.c **** 	// PORT G GROUP
 127:../common/44blib.c **** 	// BIT7		6		5		4		3		2		1		0
 128:../common/44blib.c **** 	// 	INT7	INT6	INT5	INT4	INT3	INT2	INT1	INT0
 129:../common/44blib.c **** 	//	S3		S4		S5		S6		NIC		EXT		IDE		USB
 130:../common/44blib.c **** 	//	11      11      11      11      11      11      11      11
 131:../common/44blib.c **** 	rPDATG = 0xff;
 132:../common/44blib.c **** 	rPCONG = 0xffff;
 3278              		.loc 1 132 0
 3279 00ec FF0C81E2 		add	r0, r1, #65280
 122:../common/44blib.c **** 	rPDATF = 0x0;
 3280              		.loc 1 122 0
 3281 00f0 382083E5 		str	r2, [r3, #56]
 123:../common/44blib.c **** 	rPCONF = 0x252a;
 3282              		.loc 1 123 0
 3283 00f4 34C083E5 		str	ip, [r3, #52]
 124:../common/44blib.c **** 	rPUPF  = 0x0;
 3284              		.loc 1 124 0
 3285 00f8 3C2083E5 		str	r2, [r3, #60]
 131:../common/44blib.c **** 	rPDATG = 0xff;
 3286              		.loc 1 131 0
 3287 00fc 441083E5 		str	r1, [r3, #68]
 3288              		.loc 1 132 0
 3289 0100 400083E5 		str	r0, [r3, #64]
 133:../common/44blib.c **** 	rPUPG  = 0x0;		//pull-up portG enabled
 134:../common/44blib.c **** 	rSPUCR = 0x7;  		//D15-D0 pull-up disable
 135:../common/44blib.c **** 
 136:../common/44blib.c **** 	/* Non Cache area */
 137:../common/44blib.c **** 	rNCACHBE0 = ((Non_Cache_End>>12)<<16) | (Non_Cache_Start>>12);
 3290              		.loc 1 137 0
 3291 0104 38009FE5 		ldr	r0, .L12+32
 134:../common/44blib.c **** 	rSPUCR = 0x7;  		//D15-D0 pull-up disable
 3292              		.loc 1 134 0
 3293 0108 07C0A0E3 		mov	ip, #7
 3294              		.loc 1 137 0
 3295 010c 0715A0E3 		mov	r1, #29360128
 133:../common/44blib.c **** 	rPUPG  = 0x0;		//pull-up portG enabled
 3296              		.loc 1 133 0
 3297 0110 482083E5 		str	r2, [r3, #72]
 134:../common/44blib.c **** 	rSPUCR = 0x7;  		//D15-D0 pull-up disable
 3298              		.loc 1 134 0
 3299 0114 4CC083E5 		str	ip, [r3, #76]
 3300              		.loc 1 137 0
 3301 0118 040081E5 		str	r0, [r1, #4]
 138:../common/44blib.c **** 
 139:../common/44blib.c **** 	/* Low level default */
 140:../common/44blib.c **** 	rEXTINT = 0x0;
 3302              		.loc 1 140 0
 3303 011c 502083E5 		str	r2, [r3, #80]
 141:../common/44blib.c **** }
 3304              		.loc 1 141 0
 3305 0120 1EFF2FE1 		bx	lr
 3306              	.L13:
 3307              		.align	2
 3308              	.L12:
 3309 0124 0000D201 		.word	30539776
 3310 0128 FF010000 		.word	511
 3311 012c FF070000 		.word	2047
 3312 0130 CF010000 		.word	463
 3313 0134 FFFFF00F 		.word	267452415
 3314 0138 FF300000 		.word	12543
 3315 013c AAAA0000 		.word	43690
 3316 0140 2A250000 		.word	9514
 3317 0144 002000C0 		.word	-1073733632
 3318              		.cfi_endproc
 3319              	.LFE2:
 3321              		.align	2
 3322              		.global	malloc
 3324              	malloc:
 3325              	.LFB3:
 142:../common/44blib.c **** 
 143:../common/44blib.c **** 
 144:../common/44blib.c **** //--------------------------------HEAP---------------------------------//
 145:../common/44blib.c **** void *malloc(unsigned nbyte)
 146:../common/44blib.c **** /* Very simple; Use malloc() & free() like Stack */
 147:../common/44blib.c **** // void *mallocPt=Image$$RW$$Limit;
 148:../common/44blib.c **** {
 3326              		.loc 1 148 0
 3327              		.cfi_startproc
 3328              		@ Function supports interworking.
 3329              		@ args = 0, pretend = 0, frame = 0
 3330              		@ frame_needed = 0, uses_anonymous_args = 0
 3331              		@ link register save eliminated.
 3332              	.LVL6:
 149:../common/44blib.c **** 	void *returnPt = mallocPt;
 3333              		.loc 1 149 0
 3334 0148 2C109FE5 		ldr	r1, .L16
 150:../common/44blib.c **** 
 151:../common/44blib.c **** 	mallocPt = (int *) mallocPt +nbyte/4 + ((nbyte%4)>0); //to align 4byte
 3335              		.loc 1 151 0
 3336 014c 033010E2 		ands	r3, r0, #3
 149:../common/44blib.c **** 	void *returnPt = mallocPt;
 3337              		.loc 1 149 0
 3338 0150 042091E5 		ldr	r2, [r1, #4]
 3339              	.LVL7:
 3340              		.loc 1 151 0
 3341 0154 0130A013 		movne	r3, #1
 3342 0158 20C183E0 		add	ip, r3, r0, lsr #2
 152:../common/44blib.c **** 
 153:../common/44blib.c **** 	if ((int)mallocPt > HEAPEND)
 3343              		.loc 1 153 0
 3344 015c 1C009FE5 		ldr	r0, .L16+4
 3345              	.LVL8:
 151:../common/44blib.c **** 	mallocPt = (int *) mallocPt +nbyte/4 + ((nbyte%4)>0); //to align 4byte
 3346              		.loc 1 151 0
 3347 0160 0C3182E0 		add	r3, r2, ip, asl #2
 3348              		.loc 1 153 0
 3349 0164 000053E1 		cmp	r3, r0
 151:../common/44blib.c **** 	mallocPt = (int *) mallocPt +nbyte/4 + ((nbyte%4)>0); //to align 4byte
 3350              		.loc 1 151 0
 3351 0168 043081E5 		str	r3, [r1, #4]
 154:../common/44blib.c **** 	{
 155:../common/44blib.c **** 		mallocPt = returnPt;
 3352              		.loc 1 155 0
 3353 016c 042081C5 		strgt	r2, [r1, #4]
 156:../common/44blib.c **** 		return NULL;
 3354              		.loc 1 156 0
 3355 0170 0020A0C3 		movgt	r2, #0
 157:../common/44blib.c **** 	}
 158:../common/44blib.c **** 	return returnPt;
 159:../common/44blib.c **** }
 3356              		.loc 1 159 0
 3357 0174 0200A0E1 		mov	r0, r2
 3358 0178 1EFF2FE1 		bx	lr
 3359              	.L17:
 3360              		.align	2
 3361              	.L16:
 3362 017c 00000000 		.word	.LANCHOR0
 3363 0180 00F07F0C 		.word	209711104
 3364              		.cfi_endproc
 3365              	.LFE3:
 3367              		.align	2
 3368              		.global	free
 3370              	free:
 3371              	.LFB4:
 160:../common/44blib.c **** 
 161:../common/44blib.c **** void free(void *pt)
 162:../common/44blib.c **** {
 3372              		.loc 1 162 0
 3373              		.cfi_startproc
 3374              		@ Function supports interworking.
 3375              		@ args = 0, pretend = 0, frame = 0
 3376              		@ frame_needed = 0, uses_anonymous_args = 0
 3377              		@ link register save eliminated.
 3378              	.LVL9:
 163:../common/44blib.c **** 	mallocPt = pt;
 3379              		.loc 1 163 0
 3380 0184 04309FE5 		ldr	r3, .L19
 3381 0188 040083E5 		str	r0, [r3, #4]
 164:../common/44blib.c **** }
 3382              		.loc 1 164 0
 3383 018c 1EFF2FE1 		bx	lr
 3384              	.L20:
 3385              		.align	2
 3386              	.L19:
 3387 0190 00000000 		.word	.LANCHOR0
 3388              		.cfi_endproc
 3389              	.LFE4:
 3391              		.align	2
 3392              		.global	sys_init
 3394              	sys_init:
 3395              	.LFB5:
 165:../common/44blib.c **** 
 166:../common/44blib.c **** //--------------------------------INIT---------------------------------//
 167:../common/44blib.c **** void sys_init()// Interrupt & Port
 168:../common/44blib.c **** {
 3396              		.loc 1 168 0
 3397              		.cfi_startproc
 3398              		@ Function supports interworking.
 3399              		@ args = 0, pretend = 0, frame = 0
 3400              		@ frame_needed = 1, uses_anonymous_args = 0
 3401 0194 0DC0A0E1 		mov	ip, sp
 3402              	.LCFI2:
 3403              		.cfi_def_cfa_register 12
 3404 0198 78D82DE9 		stmfd	sp!, {r3, r4, r5, r6, fp, ip, lr, pc}
 169:../common/44blib.c **** 	/* enable interrupt */
 170:../common/44blib.c **** 	rINTMOD = 0x0;
 3405              		.loc 1 170 0
 3406 019c 0010A0E3 		mov	r1, #0
 3407 01a0 1E46A0E3 		mov	r4, #31457280
 3408              		.cfi_offset 14, -8
 3409              		.cfi_offset 13, -12
 3410              		.cfi_offset 11, -16
 3411              		.cfi_offset 6, -20
 3412              		.cfi_offset 5, -24
 3413              		.cfi_offset 4, -28
 3414              		.cfi_offset 3, -32
 171:../common/44blib.c **** 	rINTCON = 0x1;
 3415              		.loc 1 171 0
 3416 01a4 0160A0E3 		mov	r6, #1
 170:../common/44blib.c **** 	rINTMOD = 0x0;
 3417              		.loc 1 170 0
 3418 01a8 081084E5 		str	r1, [r4, #8]
 172:../common/44blib.c **** 	rI_ISPC = 0xffffffff;			// clear all interrupt pend
 173:../common/44blib.c **** 	rEXTINTPND = 0xf;				  // clear EXTINTPND reg
 3419              		.loc 1 173 0
 3420 01ac 00319FE5 		ldr	r3, .L22
 171:../common/44blib.c **** 	rINTCON = 0x1;
 3421              		.loc 1 171 0
 3422 01b0 006084E5 		str	r6, [r4, #0]
 172:../common/44blib.c **** 	rI_ISPC = 0xffffffff;			// clear all interrupt pend
 3423              		.loc 1 172 0
 3424 01b4 0060E0E3 		mvn	r6, #0
 3425 01b8 246084E5 		str	r6, [r4, #36]
 3426              	.LBB6:
 3427              	.LBB8:
  75:../common/44blib.c **** 	rPCONA = 0x1ff;
 3428              		.loc 1 75 0
 3429 01bc F4509FE5 		ldr	r5, .L22+4
 3430              	.LBE8:
 3431              	.LBE6:
 3432              		.loc 1 173 0
 3433 01c0 0F60A0E3 		mov	r6, #15
 3434 01c4 546083E5 		str	r6, [r3, #84]
 3435              	.LBB10:
 3436              	.LBB7:
  82:../common/44blib.c **** 	rPDATB = 0x7ff;
 3437              		.loc 1 82 0
 3438 01c8 7F6E86E2 		add	r6, r6, #2032
  75:../common/44blib.c **** 	rPCONA = 0x1ff;
 3439              		.loc 1 75 0
 3440 01cc 005083E5 		str	r5, [r3, #0]
  82:../common/44blib.c **** 	rPDATB = 0x7ff;
 3441              		.loc 1 82 0
 3442 01d0 0C6083E5 		str	r6, [r3, #12]
  83:../common/44blib.c **** 	rPCONB = 0x1cf;			// P9-LED1 P10-LED2
 3443              		.loc 1 83 0
 3444 01d4 E0609FE5 		ldr	r6, .L22+8
 3445 01d8 086083E5 		str	r6, [r3, #8]
  96:../common/44blib.c **** 	rPDATC = 0xff00;
 3446              		.loc 1 96 0
 3447 01dc FF6CA0E3 		mov	r6, #65280
 3448 01e0 146083E5 		str	r6, [r3, #20]
  97:../common/44blib.c **** 	rPCONC = 0x0ff0ffff;
 3449              		.loc 1 97 0
 3450 01e4 D4609FE5 		ldr	r6, .L22+12
 3451 01e8 106083E5 		str	r6, [r3, #16]
  98:../common/44blib.c **** 	rPUPC  = 0x30ff;	//PULL UP RESISTOR should be enabled to I/O
 3452              		.loc 1 98 0
 3453 01ec D0609FE5 		ldr	r6, .L22+16
 3454 01f0 186083E5 		str	r6, [r3, #24]
 106:../common/44blib.c **** 	rPCOND= 0xaaaa;
 3455              		.loc 1 106 0
 3456 01f4 CC609FE5 		ldr	r6, .L22+20
 105:../common/44blib.c **** 	rPDATD= 0xff;
 3457              		.loc 1 105 0
 3458 01f8 FFE0A0E3 		mov	lr, #255
 3459 01fc 20E083E5 		str	lr, [r3, #32]
 106:../common/44blib.c **** 	rPCOND= 0xaaaa;
 3460              		.loc 1 106 0
 3461 0200 1C6083E5 		str	r6, [r3, #28]
 107:../common/44blib.c **** 	rPUPD = 0x0;
 3462              		.loc 1 107 0
 3463 0204 241083E5 		str	r1, [r3, #36]
 114:../common/44blib.c **** 	rPDATE	= 0x1ff;
 3464              		.loc 1 114 0
 3465 0208 2C5083E5 		str	r5, [r3, #44]
 115:../common/44blib.c **** 	rPCONE	= 0x25529;
 3466              		.loc 1 115 0
 3467 020c 255A85E2 		add	r5, r5, #151552
 3468 0210 CA5F85E2 		add	r5, r5, #808
 3469 0214 025085E2 		add	r5, r5, #2
 3470 0218 285083E5 		str	r5, [r3, #40]
 116:../common/44blib.c **** 	rPUPE	= 0x6;
 3471              		.loc 1 116 0
 3472 021c 0650A0E3 		mov	r5, #6
 3473 0220 305083E5 		str	r5, [r3, #48]
 123:../common/44blib.c **** 	rPCONF = 0x252a;
 3474              		.loc 1 123 0
 3475 0224 A0509FE5 		ldr	r5, .L22+24
 132:../common/44blib.c **** 	rPCONG = 0xffff;
 3476              		.loc 1 132 0
 3477 0228 A0009FE5 		ldr	r0, .L22+28
 122:../common/44blib.c **** 	rPDATF = 0x0;
 3478              		.loc 1 122 0
 3479 022c 381083E5 		str	r1, [r3, #56]
 123:../common/44blib.c **** 	rPCONF = 0x252a;
 3480              		.loc 1 123 0
 3481 0230 345083E5 		str	r5, [r3, #52]
 134:../common/44blib.c **** 	rSPUCR = 0x7;  		//D15-D0 pull-up disable
 3482              		.loc 1 134 0
 3483 0234 0750A0E3 		mov	r5, #7
 124:../common/44blib.c **** 	rPUPF  = 0x0;
 3484              		.loc 1 124 0
 3485 0238 3C1083E5 		str	r1, [r3, #60]
 131:../common/44blib.c **** 	rPDATG = 0xff;
 3486              		.loc 1 131 0
 3487 023c 44E083E5 		str	lr, [r3, #68]
 132:../common/44blib.c **** 	rPCONG = 0xffff;
 3488              		.loc 1 132 0
 3489 0240 400083E5 		str	r0, [r3, #64]
 133:../common/44blib.c **** 	rPUPG  = 0x0;		//pull-up portG enabled
 3490              		.loc 1 133 0
 3491 0244 481083E5 		str	r1, [r3, #72]
 134:../common/44blib.c **** 	rSPUCR = 0x7;  		//D15-D0 pull-up disable
 3492              		.loc 1 134 0
 3493 0248 4C5083E5 		str	r5, [r3, #76]
 137:../common/44blib.c **** 	rNCACHBE0 = ((Non_Cache_End>>12)<<16) | (Non_Cache_Start>>12);
 3494              		.loc 1 137 0
 3495 024c 80509FE5 		ldr	r5, .L22+32
 3496 0250 07E5A0E3 		mov	lr, #29360128
 3497 0254 04508EE5 		str	r5, [lr, #4]
 3498              	.LBE7:
 3499              	.LBE10:
 3500              	.LBB11:
 3501              	.LBB13:
  38:../common/44blib.c **** 		rWTCON = ((MCLK/1000000 - 1)<<8) | (2<<3);	// 1M/64,Watch-dog,nRESET,interrupt disable//
 3502              		.loc 1 38 0
 3503 0258 78209FE5 		ldr	r2, .L22+36
 3504              	.LBE13:
 3505              	.LBE11:
 168:../common/44blib.c **** {
 3506              		.loc 1 168 0
 3507 025c 04B04CE2 		sub	fp, ip, #4
 3508              	.LCFI3:
 3509              		.cfi_def_cfa 11, 4
 3510              	.LBB16:
 3511              	.LBB14:
  41:../common/44blib.c **** 		rWTCON = ((MCLK/1000000 - 1)<<8)|(2<<3)|(1<<5); // 1M/64,Watch-dog enable,nRESET,interrupt disabl
 3512              		.loc 1 41 0
 3513 0260 74E09FE5 		ldr	lr, .L22+40
  38:../common/44blib.c **** 		rWTCON = ((MCLK/1000000 - 1)<<8) | (2<<3);	// 1M/64,Watch-dog,nRESET,interrupt disable//
 3514              		.loc 1 38 0
 3515 0264 74C09FE5 		ldr	ip, .L22+44
 3516              	.LBE14:
 3517              	.LBE16:
 3518              	.LBB17:
 3519              	.LBB9:
 140:../common/44blib.c **** 	rEXTINT = 0x0;
 3520              		.loc 1 140 0
 3521 0268 501083E5 		str	r1, [r3, #80]
 3522              	.LVL10:
 3523              	.LBE9:
 3524              	.LBE17:
 3525              	.LBB18:
 3526              	.LBB12:
  38:../common/44blib.c **** 		rWTCON = ((MCLK/1000000 - 1)<<8) | (2<<3);	// 1M/64,Watch-dog,nRESET,interrupt disable//
 3527              		.loc 1 38 0
 3528 026c 00C082E5 		str	ip, [r2, #0]
  39:../common/44blib.c **** 		rWTDAT = 0xffff;
 3529              		.loc 1 39 0
 3530 0270 040082E5 		str	r0, [r2, #4]
  40:../common/44blib.c **** 		rWTCNT = 0xffff;
 3531              		.loc 1 40 0
 3532 0274 080082E5 		str	r0, [r2, #8]
  41:../common/44blib.c **** 		rWTCON = ((MCLK/1000000 - 1)<<8)|(2<<3)|(1<<5); // 1M/64,Watch-dog enable,nRESET,interrupt disabl
 3533              		.loc 1 41 0
 3534 0278 00E082E5 		str	lr, [r2, #0]
 3535              	.LVL11:
  47:../common/44blib.c **** 		rWTCON = ((MCLK/1000000 - 1)<<8)|(2<<3);
 3536              		.loc 1 47 0
 3537 027c 00C082E5 		str	ip, [r2, #0]
  48:../common/44blib.c **** 		i = 0xffff - rWTCNT;   //  1count/16us?????????//
 3538              		.loc 1 48 0
 3539 0280 08C092E5 		ldr	ip, [r2, #8]
 3540              	.LVL12:
 3541 0284 FF0C6CE2 		rsb	r0, ip, #65280
 3542 0288 FF2080E2 		add	r2, r0, #255
  49:../common/44blib.c **** 		delayLoopCount = 8000000/(i*64);	//400*100/(i*64/200)   //
 3543              		.loc 1 49 0
 3544 028c 0213A0E1 		mov	r1, r2, asl #6
 3545 0290 4C009FE5 		ldr	r0, .L22+48
 3546 0294 FEFFFFEB 		bl	__aeabi_idiv
 3547              	.LVL13:
 3548 0298 48109FE5 		ldr	r1, .L22+52
 3549              	.LBE12:
 3550              	.LBE18:
 174:../common/44blib.c **** 	Port_Init();					    // Initial 44B0X's I/O port
 175:../common/44blib.c **** 	Delay(0);						      // delay time				
 176:../common/44blib.c **** 	rINTMSK = ~(BIT_GLOBAL);  //enable interrupt mask vector
 3551              		.loc 1 176 0
 3552 029c 0133E0E3 		mvn	r3, #67108864
 3553              	.LBB19:
 3554              	.LBB15:
  49:../common/44blib.c **** 		delayLoopCount = 8000000/(i*64);	//400*100/(i*64/200)   //
 3555              		.loc 1 49 0
 3556 02a0 000081E5 		str	r0, [r1, #0]
 3557              	.LBE15:
 3558              	.LBE19:
 3559              		.loc 1 176 0
 3560 02a4 0C3084E5 		str	r3, [r4, #12]
 177:../common/44blib.c **** }
 3561              		.loc 1 177 0
 3562 02a8 1CD04BE2 		sub	sp, fp, #28
 3563 02ac 78689DE8 		ldmfd	sp, {r3, r4, r5, r6, fp, sp, lr}
 3564 02b0 1EFF2FE1 		bx	lr
 3565              	.L23:
 3566              		.align	2
 3567              	.L22:
 3568 02b4 0000D201 		.word	30539776
 3569 02b8 FF010000 		.word	511
 3570 02bc CF010000 		.word	463
 3571 02c0 FFFFF00F 		.word	267452415
 3572 02c4 FF300000 		.word	12543
 3573 02c8 AAAA0000 		.word	43690
 3574 02cc 2A250000 		.word	9514
 3575 02d0 FFFF0000 		.word	65535
 3576 02d4 002000C0 		.word	-1073733632
 3577 02d8 0000D301 		.word	30605312
 3578 02dc 303F0000 		.word	16176
 3579 02e0 103F0000 		.word	16144
 3580 02e4 00127A00 		.word	8000000
 3581 02e8 00000000 		.word	.LANCHOR0
 3582              		.cfi_endproc
 3583              	.LFE5:
 3585              		.global	mallocPt
 3586              		.global	restart
 3587              		.global	run
 3588              		.comm	downPt,4,4
 3589              		.comm	fileSize,4,4
 3590              		.data
 3591              		.align	2
 3592              		.set	.LANCHOR0,. + 0
 3595              	delayLoopCount:
 3596 0000 90010000 		.word	400
 3599              	mallocPt:
 3600 0004 00000000 		.word	Image_RW_Limit
 3603              	run:
 3604 0008 0000000C 		.word	201326592
 3605              		.bss
 3606              		.align	2
 3609              	restart:
 3610 0000 00000000 		.space	4
 3611              		.text
 3612              	.Letext0: